
ATm2560Bootloader.elf:     file format elf32-avr

Sections:
Idx Name          Size      VMA       LMA       File off  Algn
  0 .data         0000003e  00800200  00000d68  00000ddc  2**0
                  CONTENTS, ALLOC, LOAD, DATA
  1 .text         00000d68  00000000  00000000  00000074  2**1
                  CONTENTS, ALLOC, LOAD, READONLY, CODE
  2 .stab         000006e4  00000000  00000000  00000e1c  2**2
                  CONTENTS, READONLY, DEBUGGING
  3 .stabstr      00000054  00000000  00000000  00001500  2**0
                  CONTENTS, READONLY, DEBUGGING

Disassembly of section .text:

00000000 <__vectors>:
   0:	0c 94 72 00 	jmp	0xe4	; 0xe4 <__ctors_end>
   4:	0c 94 93 00 	jmp	0x126	; 0x126 <__bad_interrupt>
   8:	0c 94 93 00 	jmp	0x126	; 0x126 <__bad_interrupt>
   c:	0c 94 93 00 	jmp	0x126	; 0x126 <__bad_interrupt>
  10:	0c 94 93 00 	jmp	0x126	; 0x126 <__bad_interrupt>
  14:	0c 94 93 00 	jmp	0x126	; 0x126 <__bad_interrupt>
  18:	0c 94 93 00 	jmp	0x126	; 0x126 <__bad_interrupt>
  1c:	0c 94 93 00 	jmp	0x126	; 0x126 <__bad_interrupt>
  20:	0c 94 93 00 	jmp	0x126	; 0x126 <__bad_interrupt>
  24:	0c 94 93 00 	jmp	0x126	; 0x126 <__bad_interrupt>
  28:	0c 94 93 00 	jmp	0x126	; 0x126 <__bad_interrupt>
  2c:	0c 94 93 00 	jmp	0x126	; 0x126 <__bad_interrupt>
  30:	0c 94 93 00 	jmp	0x126	; 0x126 <__bad_interrupt>
  34:	0c 94 93 00 	jmp	0x126	; 0x126 <__bad_interrupt>
  38:	0c 94 93 00 	jmp	0x126	; 0x126 <__bad_interrupt>
  3c:	0c 94 93 00 	jmp	0x126	; 0x126 <__bad_interrupt>
  40:	0c 94 93 00 	jmp	0x126	; 0x126 <__bad_interrupt>
  44:	0c 94 93 00 	jmp	0x126	; 0x126 <__bad_interrupt>
  48:	0c 94 93 00 	jmp	0x126	; 0x126 <__bad_interrupt>
  4c:	0c 94 93 00 	jmp	0x126	; 0x126 <__bad_interrupt>
  50:	0c 94 93 00 	jmp	0x126	; 0x126 <__bad_interrupt>
  54:	0c 94 93 00 	jmp	0x126	; 0x126 <__bad_interrupt>
  58:	0c 94 93 00 	jmp	0x126	; 0x126 <__bad_interrupt>
  5c:	0c 94 93 00 	jmp	0x126	; 0x126 <__bad_interrupt>
  60:	0c 94 93 00 	jmp	0x126	; 0x126 <__bad_interrupt>
  64:	0c 94 93 00 	jmp	0x126	; 0x126 <__bad_interrupt>
  68:	0c 94 93 00 	jmp	0x126	; 0x126 <__bad_interrupt>
  6c:	0c 94 93 00 	jmp	0x126	; 0x126 <__bad_interrupt>
  70:	0c 94 93 00 	jmp	0x126	; 0x126 <__bad_interrupt>
  74:	0c 94 93 00 	jmp	0x126	; 0x126 <__bad_interrupt>
  78:	0c 94 93 00 	jmp	0x126	; 0x126 <__bad_interrupt>
  7c:	0c 94 93 00 	jmp	0x126	; 0x126 <__bad_interrupt>
  80:	0c 94 93 00 	jmp	0x126	; 0x126 <__bad_interrupt>
  84:	0c 94 93 00 	jmp	0x126	; 0x126 <__bad_interrupt>
  88:	0c 94 93 00 	jmp	0x126	; 0x126 <__bad_interrupt>
  8c:	0c 94 93 00 	jmp	0x126	; 0x126 <__bad_interrupt>
  90:	0c 94 93 00 	jmp	0x126	; 0x126 <__bad_interrupt>
  94:	0c 94 93 00 	jmp	0x126	; 0x126 <__bad_interrupt>
  98:	0c 94 93 00 	jmp	0x126	; 0x126 <__bad_interrupt>
  9c:	0c 94 93 00 	jmp	0x126	; 0x126 <__bad_interrupt>
  a0:	0c 94 93 00 	jmp	0x126	; 0x126 <__bad_interrupt>
  a4:	0c 94 93 00 	jmp	0x126	; 0x126 <__bad_interrupt>
  a8:	0c 94 93 00 	jmp	0x126	; 0x126 <__bad_interrupt>
  ac:	0c 94 93 00 	jmp	0x126	; 0x126 <__bad_interrupt>
  b0:	0c 94 93 00 	jmp	0x126	; 0x126 <__bad_interrupt>
  b4:	0c 94 93 00 	jmp	0x126	; 0x126 <__bad_interrupt>
  b8:	0c 94 93 00 	jmp	0x126	; 0x126 <__bad_interrupt>
  bc:	0c 94 93 00 	jmp	0x126	; 0x126 <__bad_interrupt>
  c0:	0c 94 93 00 	jmp	0x126	; 0x126 <__bad_interrupt>
  c4:	0c 94 93 00 	jmp	0x126	; 0x126 <__bad_interrupt>
  c8:	0c 94 93 00 	jmp	0x126	; 0x126 <__bad_interrupt>
  cc:	0c 94 93 00 	jmp	0x126	; 0x126 <__bad_interrupt>
  d0:	0c 94 93 00 	jmp	0x126	; 0x126 <__bad_interrupt>
  d4:	0c 94 93 00 	jmp	0x126	; 0x126 <__bad_interrupt>
  d8:	0c 94 93 00 	jmp	0x126	; 0x126 <__bad_interrupt>
  dc:	0c 94 93 00 	jmp	0x126	; 0x126 <__bad_interrupt>
  e0:	0c 94 93 00 	jmp	0x126	; 0x126 <__bad_interrupt>

000000e4 <__ctors_end>:
  e4:	11 24       	eor	r1, r1
  e6:	1f be       	out	0x3f, r1	; 63
  e8:	cf ef       	ldi	r28, 0xFF	; 255
  ea:	d1 e2       	ldi	r29, 0x21	; 33
  ec:	de bf       	out	0x3e, r29	; 62
  ee:	cd bf       	out	0x3d, r28	; 61
  f0:	00 e0       	ldi	r16, 0x00	; 0
  f2:	0c bf       	out	0x3c, r16	; 60

000000f4 <__do_copy_data>:
  f4:	12 e0       	ldi	r17, 0x02	; 2
  f6:	a0 e0       	ldi	r26, 0x00	; 0
  f8:	b2 e0       	ldi	r27, 0x02	; 2
  fa:	e8 e6       	ldi	r30, 0x68	; 104
  fc:	fd e0       	ldi	r31, 0x0D	; 13
  fe:	00 e0       	ldi	r16, 0x00	; 0
 100:	0b bf       	out	0x3b, r16	; 59
 102:	02 c0       	rjmp	.+4      	; 0x108 <__do_copy_data+0x14>
 104:	07 90       	elpm	r0, Z+
 106:	0d 92       	st	X+, r0
 108:	ae 33       	cpi	r26, 0x3E	; 62
 10a:	b1 07       	cpc	r27, r17
 10c:	d9 f7       	brne	.-10     	; 0x104 <__do_copy_data+0x10>
 10e:	0e 94 e6 00 	call	0x1cc	; 0x1cc <main>
 112:	0c 94 b2 06 	jmp	0xd64	; 0xd64 <_exit>

00000116 <__jumpMain>:
 116:	01 e2       	ldi	r16, 0x21	; 33
 118:	0e bf       	out	0x3e, r16	; 62
 11a:	0f ef       	ldi	r16, 0xFF	; 255
 11c:	0d bf       	out	0x3d, r16	; 61
 11e:	11 24       	eor	r1, r1
 120:	1f be       	out	0x3f, r1	; 63
 122:	0c 94 e6 00 	jmp	0x1cc	; 0x1cc <main>

00000126 <__bad_interrupt>:
 126:	0c 94 00 00 	jmp	0	; 0x0 <__vectors>

0000012a <senden_spi>:
 12a:	43 98       	cbi	0x08, 3	; 8
 12c:	42 9a       	sbi	0x08, 2	; 8
 12e:	98 e0       	ldi	r25, 0x08	; 8
 130:	20 e8       	ldi	r18, 0x80	; 128
 132:	06 c0       	rjmp	.+12     	; 0x140 <senden_spi+0x16>
 134:	41 9a       	sbi	0x08, 1	; 8
 136:	42 98       	cbi	0x08, 2	; 8
 138:	42 9a       	sbi	0x08, 2	; 8
 13a:	91 50       	subi	r25, 0x01	; 1
 13c:	49 f0       	breq	.+18     	; 0x150 <senden_spi+0x26>
 13e:	26 95       	lsr	r18
 140:	32 2f       	mov	r19, r18
 142:	38 23       	and	r19, r24
 144:	b9 f7       	brne	.-18     	; 0x134 <senden_spi+0xa>
 146:	41 98       	cbi	0x08, 1	; 8
 148:	42 98       	cbi	0x08, 2	; 8
 14a:	42 9a       	sbi	0x08, 2	; 8
 14c:	91 50       	subi	r25, 0x01	; 1
 14e:	b9 f7       	brne	.-18     	; 0x13e <senden_spi+0x14>
 150:	43 9a       	sbi	0x08, 3	; 8
 152:	08 95       	ret

00000154 <send_command>:
 154:	47 98       	cbi	0x08, 7	; 8
 156:	0e 94 95 00 	call	0x12a	; 0x12a <senden_spi>
 15a:	47 9a       	sbi	0x08, 7	; 8
 15c:	08 95       	ret

0000015e <send_char>:
 15e:	47 9a       	sbi	0x08, 7	; 8
 160:	0e 94 95 00 	call	0x12a	; 0x12a <senden_spi>
 164:	08 95       	ret

00000166 <draw_line.clone.0>:
 166:	1f 93       	push	r17
 168:	cf 93       	push	r28
 16a:	df 93       	push	r29
 16c:	18 2f       	mov	r17, r24
 16e:	85 e1       	ldi	r24, 0x15	; 21
 170:	0e 94 aa 00 	call	0x154	; 0x154 <send_command>
 174:	80 e0       	ldi	r24, 0x00	; 0
 176:	0e 94 aa 00 	call	0x154	; 0x154 <send_command>
 17a:	8f e3       	ldi	r24, 0x3F	; 63
 17c:	0e 94 aa 00 	call	0x154	; 0x154 <send_command>
 180:	85 e7       	ldi	r24, 0x75	; 117
 182:	0e 94 aa 00 	call	0x154	; 0x154 <send_command>
 186:	81 2f       	mov	r24, r17
 188:	0e 94 aa 00 	call	0x154	; 0x154 <send_command>
 18c:	81 2f       	mov	r24, r17
 18e:	0e 94 aa 00 	call	0x154	; 0x154 <send_command>
 192:	c0 e0       	ldi	r28, 0x00	; 0
 194:	d0 e0       	ldi	r29, 0x00	; 0
 196:	8f ef       	ldi	r24, 0xFF	; 255
 198:	0e 94 af 00 	call	0x15e	; 0x15e <send_char>
 19c:	21 96       	adiw	r28, 0x01	; 1
 19e:	c0 34       	cpi	r28, 0x40	; 64
 1a0:	d1 05       	cpc	r29, r1
 1a2:	c9 f7       	brne	.-14     	; 0x196 <draw_line.clone.0+0x30>
 1a4:	df 91       	pop	r29
 1a6:	cf 91       	pop	r28
 1a8:	1f 91       	pop	r17
 1aa:	08 95       	ret

000001ac <delay_ms>:
 1ac:	00 97       	sbiw	r24, 0x00	; 0
 1ae:	69 f0       	breq	.+26     	; 0x1ca <delay_ms+0x1e>
 1b0:	20 e0       	ldi	r18, 0x00	; 0
 1b2:	30 e0       	ldi	r19, 0x00	; 0
 1b4:	ef ec       	ldi	r30, 0xCF	; 207
 1b6:	f7 e0       	ldi	r31, 0x07	; 7
 1b8:	31 97       	sbiw	r30, 0x01	; 1
 1ba:	f1 f7       	brne	.-4      	; 0x1b8 <delay_ms+0xc>
 1bc:	00 c0       	rjmp	.+0      	; 0x1be <delay_ms+0x12>
 1be:	00 00       	nop
 1c0:	2f 5f       	subi	r18, 0xFF	; 255
 1c2:	3f 4f       	sbci	r19, 0xFF	; 255
 1c4:	28 17       	cp	r18, r24
 1c6:	39 07       	cpc	r19, r25
 1c8:	a8 f3       	brcs	.-22     	; 0x1b4 <delay_ms+0x8>
 1ca:	08 95       	ret

000001cc <main>:
 1cc:	2f 92       	push	r2
 1ce:	3f 92       	push	r3
 1d0:	4f 92       	push	r4
 1d2:	5f 92       	push	r5
 1d4:	6f 92       	push	r6
 1d6:	7f 92       	push	r7
 1d8:	8f 92       	push	r8
 1da:	9f 92       	push	r9
 1dc:	af 92       	push	r10
 1de:	bf 92       	push	r11
 1e0:	cf 92       	push	r12
 1e2:	df 92       	push	r13
 1e4:	ef 92       	push	r14
 1e6:	ff 92       	push	r15
 1e8:	0f 93       	push	r16
 1ea:	1f 93       	push	r17
 1ec:	df 93       	push	r29
 1ee:	cf 93       	push	r28
 1f0:	cd b7       	in	r28, 0x3d	; 61
 1f2:	de b7       	in	r29, 0x3e	; 62
 1f4:	c6 52       	subi	r28, 0x26	; 38
 1f6:	d1 40       	sbci	r29, 0x01	; 1
 1f8:	0f b6       	in	r0, 0x3f	; 63
 1fa:	f8 94       	cli
 1fc:	de bf       	out	0x3e, r29	; 62
 1fe:	0f be       	out	0x3f, r0	; 63
 200:	cd bf       	out	0x3d, r28	; 61
 202:	80 91 01 01 	lds	r24, 0x0101
 206:	87 7f       	andi	r24, 0xF7	; 247
 208:	80 93 01 01 	sts	0x0101, r24
 20c:	88 e0       	ldi	r24, 0x08	; 8
 20e:	80 93 02 01 	sts	0x0102, r24
 212:	80 91 c0 00 	lds	r24, 0x00C0
 216:	82 60       	ori	r24, 0x02	; 2
 218:	80 93 c0 00 	sts	0x00C0, r24
 21c:	80 e1       	ldi	r24, 0x10	; 16
 21e:	80 93 c4 00 	sts	0x00C4, r24
 222:	88 e1       	ldi	r24, 0x18	; 24
 224:	80 93 c1 00 	sts	0x00C1, r24
 228:	00 00       	nop
 22a:	8e ea       	ldi	r24, 0xAE	; 174
 22c:	87 b9       	out	0x07, r24	; 7
 22e:	8f e9       	ldi	r24, 0x9F	; 159
 230:	9f e0       	ldi	r25, 0x0F	; 15
 232:	01 97       	sbiw	r24, 0x01	; 1
 234:	f1 f7       	brne	.-4      	; 0x232 <main+0x66>
 236:	00 c0       	rjmp	.+0      	; 0x238 <main+0x6c>
 238:	00 00       	nop
 23a:	43 9a       	sbi	0x08, 3	; 8
 23c:	47 98       	cbi	0x08, 7	; 8
 23e:	41 98       	cbi	0x08, 1	; 8
 240:	42 98       	cbi	0x08, 2	; 8
 242:	45 98       	cbi	0x08, 5	; 8
 244:	af e9       	ldi	r26, 0x9F	; 159
 246:	bf e0       	ldi	r27, 0x0F	; 15
 248:	11 97       	sbiw	r26, 0x01	; 1
 24a:	f1 f7       	brne	.-4      	; 0x248 <main+0x7c>
 24c:	00 c0       	rjmp	.+0      	; 0x24e <main+0x82>
 24e:	00 00       	nop
 250:	45 9a       	sbi	0x08, 5	; 8
 252:	85 e1       	ldi	r24, 0x15	; 21
 254:	0e 94 aa 00 	call	0x154	; 0x154 <send_command>
 258:	80 e0       	ldi	r24, 0x00	; 0
 25a:	0e 94 aa 00 	call	0x154	; 0x154 <send_command>
 25e:	8f e3       	ldi	r24, 0x3F	; 63
 260:	0e 94 aa 00 	call	0x154	; 0x154 <send_command>
 264:	85 e7       	ldi	r24, 0x75	; 117
 266:	0e 94 aa 00 	call	0x154	; 0x154 <send_command>
 26a:	80 e0       	ldi	r24, 0x00	; 0
 26c:	0e 94 aa 00 	call	0x154	; 0x154 <send_command>
 270:	8f e3       	ldi	r24, 0x3F	; 63
 272:	0e 94 aa 00 	call	0x154	; 0x154 <send_command>
 276:	81 e8       	ldi	r24, 0x81	; 129
 278:	0e 94 aa 00 	call	0x154	; 0x154 <send_command>
 27c:	86 e6       	ldi	r24, 0x66	; 102
 27e:	0e 94 aa 00 	call	0x154	; 0x154 <send_command>
 282:	86 e8       	ldi	r24, 0x86	; 134
 284:	0e 94 aa 00 	call	0x154	; 0x154 <send_command>
 288:	80 ea       	ldi	r24, 0xA0	; 160
 28a:	0e 94 aa 00 	call	0x154	; 0x154 <send_command>
 28e:	82 e5       	ldi	r24, 0x52	; 82
 290:	0e 94 aa 00 	call	0x154	; 0x154 <send_command>
 294:	81 ea       	ldi	r24, 0xA1	; 161
 296:	0e 94 aa 00 	call	0x154	; 0x154 <send_command>
 29a:	80 e0       	ldi	r24, 0x00	; 0
 29c:	0e 94 aa 00 	call	0x154	; 0x154 <send_command>
 2a0:	82 ea       	ldi	r24, 0xA2	; 162
 2a2:	0e 94 aa 00 	call	0x154	; 0x154 <send_command>
 2a6:	8c e4       	ldi	r24, 0x4C	; 76
 2a8:	0e 94 aa 00 	call	0x154	; 0x154 <send_command>
 2ac:	84 ea       	ldi	r24, 0xA4	; 164
 2ae:	0e 94 aa 00 	call	0x154	; 0x154 <send_command>
 2b2:	88 ea       	ldi	r24, 0xA8	; 168
 2b4:	0e 94 aa 00 	call	0x154	; 0x154 <send_command>
 2b8:	8f e3       	ldi	r24, 0x3F	; 63
 2ba:	0e 94 aa 00 	call	0x154	; 0x154 <send_command>
 2be:	81 eb       	ldi	r24, 0xB1	; 177
 2c0:	0e 94 aa 00 	call	0x154	; 0x154 <send_command>
 2c4:	88 ea       	ldi	r24, 0xA8	; 168
 2c6:	0e 94 aa 00 	call	0x154	; 0x154 <send_command>
 2ca:	82 eb       	ldi	r24, 0xB2	; 178
 2cc:	0e 94 aa 00 	call	0x154	; 0x154 <send_command>
 2d0:	86 e4       	ldi	r24, 0x46	; 70
 2d2:	0e 94 aa 00 	call	0x154	; 0x154 <send_command>
 2d6:	83 eb       	ldi	r24, 0xB3	; 179
 2d8:	0e 94 aa 00 	call	0x154	; 0x154 <send_command>
 2dc:	81 ef       	ldi	r24, 0xF1	; 241
 2de:	0e 94 aa 00 	call	0x154	; 0x154 <send_command>
 2e2:	8f eb       	ldi	r24, 0xBF	; 191
 2e4:	0e 94 aa 00 	call	0x154	; 0x154 <send_command>
 2e8:	8d e0       	ldi	r24, 0x0D	; 13
 2ea:	0e 94 aa 00 	call	0x154	; 0x154 <send_command>
 2ee:	8e eb       	ldi	r24, 0xBE	; 190
 2f0:	0e 94 aa 00 	call	0x154	; 0x154 <send_command>
 2f4:	82 e0       	ldi	r24, 0x02	; 2
 2f6:	0e 94 aa 00 	call	0x154	; 0x154 <send_command>
 2fa:	8c eb       	ldi	r24, 0xBC	; 188
 2fc:	0e 94 aa 00 	call	0x154	; 0x154 <send_command>
 300:	88 e3       	ldi	r24, 0x38	; 56
 302:	0e 94 aa 00 	call	0x154	; 0x154 <send_command>
 306:	88 eb       	ldi	r24, 0xB8	; 184
 308:	0e 94 aa 00 	call	0x154	; 0x154 <send_command>
 30c:	81 e0       	ldi	r24, 0x01	; 1
 30e:	0e 94 aa 00 	call	0x154	; 0x154 <send_command>
 312:	81 e1       	ldi	r24, 0x11	; 17
 314:	0e 94 aa 00 	call	0x154	; 0x154 <send_command>
 318:	82 e2       	ldi	r24, 0x22	; 34
 31a:	0e 94 aa 00 	call	0x154	; 0x154 <send_command>
 31e:	82 e3       	ldi	r24, 0x32	; 50
 320:	0e 94 aa 00 	call	0x154	; 0x154 <send_command>
 324:	83 e4       	ldi	r24, 0x43	; 67
 326:	0e 94 aa 00 	call	0x154	; 0x154 <send_command>
 32a:	84 e5       	ldi	r24, 0x54	; 84
 32c:	0e 94 aa 00 	call	0x154	; 0x154 <send_command>
 330:	85 e6       	ldi	r24, 0x65	; 101
 332:	0e 94 aa 00 	call	0x154	; 0x154 <send_command>
 336:	86 e7       	ldi	r24, 0x76	; 118
 338:	0e 94 aa 00 	call	0x154	; 0x154 <send_command>
 33c:	8d ea       	ldi	r24, 0xAD	; 173
 33e:	0e 94 aa 00 	call	0x154	; 0x154 <send_command>
 342:	82 e0       	ldi	r24, 0x02	; 2
 344:	0e 94 aa 00 	call	0x154	; 0x154 <send_command>
 348:	8f ea       	ldi	r24, 0xAF	; 175
 34a:	0e 94 aa 00 	call	0x154	; 0x154 <send_command>
 34e:	85 e1       	ldi	r24, 0x15	; 21
 350:	0e 94 aa 00 	call	0x154	; 0x154 <send_command>
 354:	80 e0       	ldi	r24, 0x00	; 0
 356:	0e 94 aa 00 	call	0x154	; 0x154 <send_command>
 35a:	8f e7       	ldi	r24, 0x7F	; 127
 35c:	0e 94 aa 00 	call	0x154	; 0x154 <send_command>
 360:	85 e7       	ldi	r24, 0x75	; 117
 362:	0e 94 aa 00 	call	0x154	; 0x154 <send_command>
 366:	80 e0       	ldi	r24, 0x00	; 0
 368:	0e 94 aa 00 	call	0x154	; 0x154 <send_command>
 36c:	8f e3       	ldi	r24, 0x3F	; 63
 36e:	0e 94 aa 00 	call	0x154	; 0x154 <send_command>
 372:	e1 2c       	mov	r14, r1
 374:	90 e1       	ldi	r25, 0x10	; 16
 376:	f9 2e       	mov	r15, r25
 378:	80 e0       	ldi	r24, 0x00	; 0
 37a:	0e 94 af 00 	call	0x15e	; 0x15e <send_char>
 37e:	08 94       	sec
 380:	e1 08       	sbc	r14, r1
 382:	f1 08       	sbc	r15, r1
 384:	e1 14       	cp	r14, r1
 386:	f1 04       	cpc	r15, r1
 388:	b9 f7       	brne	.-18     	; 0x378 <main+0x1ac>
 38a:	1a 82       	std	Y+2, r1	; 0x02
 38c:	88 e0       	ldi	r24, 0x08	; 8
 38e:	8b 83       	std	Y+3, r24	; 0x03
 390:	81 e4       	ldi	r24, 0x41	; 65
 392:	8c 83       	std	Y+4, r24	; 0x04
 394:	86 e5       	ldi	r24, 0x56	; 86
 396:	8d 83       	std	Y+5, r24	; 0x05
 398:	82 e5       	ldi	r24, 0x52	; 82
 39a:	8e 83       	std	Y+6, r24	; 0x06
 39c:	89 e4       	ldi	r24, 0x49	; 73
 39e:	8f 83       	std	Y+7, r24	; 0x07
 3a0:	83 e5       	ldi	r24, 0x53	; 83
 3a2:	88 87       	std	Y+8, r24	; 0x08
 3a4:	80 e5       	ldi	r24, 0x50	; 80
 3a6:	89 87       	std	Y+9, r24	; 0x09
 3a8:	8f e5       	ldi	r24, 0x5F	; 95
 3aa:	8a 87       	std	Y+10, r24	; 0x0a
 3ac:	82 e3       	ldi	r24, 0x32	; 50
 3ae:	8b 87       	std	Y+11, r24	; 0x0b
 3b0:	8b e1       	ldi	r24, 0x1B	; 27
 3b2:	80 93 c6 00 	sts	0x00C6, r24
 3b6:	80 91 c0 00 	lds	r24, 0x00C0
 3ba:	86 ff       	sbrs	r24, 6
 3bc:	fc cf       	rjmp	.-8      	; 0x3b6 <main+0x1ea>
 3be:	80 91 c0 00 	lds	r24, 0x00C0
 3c2:	80 64       	ori	r24, 0x40	; 64
 3c4:	80 93 c0 00 	sts	0x00C0, r24
 3c8:	81 e0       	ldi	r24, 0x01	; 1
 3ca:	80 93 c6 00 	sts	0x00C6, r24
 3ce:	80 91 c0 00 	lds	r24, 0x00C0
 3d2:	86 ff       	sbrs	r24, 6
 3d4:	fc cf       	rjmp	.-8      	; 0x3ce <main+0x202>
 3d6:	80 91 c0 00 	lds	r24, 0x00C0
 3da:	80 64       	ori	r24, 0x40	; 64
 3dc:	80 93 c0 00 	sts	0x00C0, r24
 3e0:	10 92 c6 00 	sts	0x00C6, r1
 3e4:	80 91 c0 00 	lds	r24, 0x00C0
 3e8:	86 ff       	sbrs	r24, 6
 3ea:	fc cf       	rjmp	.-8      	; 0x3e4 <main+0x218>
 3ec:	80 91 c0 00 	lds	r24, 0x00C0
 3f0:	80 64       	ori	r24, 0x40	; 64
 3f2:	80 93 c0 00 	sts	0x00C0, r24
 3f6:	8b e0       	ldi	r24, 0x0B	; 11
 3f8:	80 93 c6 00 	sts	0x00C6, r24
 3fc:	80 91 c0 00 	lds	r24, 0x00C0
 400:	86 ff       	sbrs	r24, 6
 402:	fc cf       	rjmp	.-8      	; 0x3fc <main+0x230>
 404:	80 91 c0 00 	lds	r24, 0x00C0
 408:	80 64       	ori	r24, 0x40	; 64
 40a:	80 93 c0 00 	sts	0x00C0, r24
 40e:	8e e0       	ldi	r24, 0x0E	; 14
 410:	80 93 c6 00 	sts	0x00C6, r24
 414:	80 91 c0 00 	lds	r24, 0x00C0
 418:	86 ff       	sbrs	r24, 6
 41a:	fc cf       	rjmp	.-8      	; 0x414 <main+0x248>
 41c:	80 91 c0 00 	lds	r24, 0x00C0
 420:	80 64       	ori	r24, 0x40	; 64
 422:	80 93 c0 00 	sts	0x00C0, r24
 426:	ce 01       	movw	r24, r28
 428:	0c 96       	adiw	r24, 0x0c	; 12
 42a:	fe 01       	movw	r30, r28
 42c:	31 96       	adiw	r30, 0x01	; 1
 42e:	2f e1       	ldi	r18, 0x1F	; 31
 430:	41 91       	ld	r20, Z+
 432:	40 93 c6 00 	sts	0x00C6, r20
 436:	30 91 c0 00 	lds	r19, 0x00C0
 43a:	36 ff       	sbrs	r19, 6
 43c:	fc cf       	rjmp	.-8      	; 0x436 <main+0x26a>
 43e:	30 91 c0 00 	lds	r19, 0x00C0
 442:	30 64       	ori	r19, 0x40	; 64
 444:	30 93 c0 00 	sts	0x00C0, r19
 448:	24 27       	eor	r18, r20
 44a:	e8 17       	cp	r30, r24
 44c:	f9 07       	cpc	r31, r25
 44e:	81 f7       	brne	.-32     	; 0x430 <main+0x264>
 450:	20 93 c6 00 	sts	0x00C6, r18
 454:	80 91 c0 00 	lds	r24, 0x00C0
 458:	86 ff       	sbrs	r24, 6
 45a:	fc cf       	rjmp	.-8      	; 0x454 <main+0x288>
 45c:	80 91 c0 00 	lds	r24, 0x00C0
 460:	80 64       	ori	r24, 0x40	; 64
 462:	80 93 c0 00 	sts	0x00C0, r24
 466:	40 e0       	ldi	r20, 0x00	; 0
 468:	50 e0       	ldi	r21, 0x00	; 0
 46a:	ba 01       	movw	r22, r20
 46c:	80 e0       	ldi	r24, 0x00	; 0
 46e:	90 e0       	ldi	r25, 0x00	; 0
 470:	30 91 c0 00 	lds	r19, 0x00C0
 474:	37 fd       	sbrc	r19, 7
 476:	1e c0       	rjmp	.+60     	; 0x4b4 <main+0x2e8>
 478:	00 97       	sbiw	r24, 0x00	; 0
 47a:	e1 f4       	brne	.+56     	; 0x4b4 <main+0x2e8>
 47c:	b5 e0       	ldi	r27, 0x05	; 5
 47e:	ba 95       	dec	r27
 480:	f1 f7       	brne	.-4      	; 0x47e <main+0x2b2>
 482:	00 00       	nop
 484:	80 91 00 01 	lds	r24, 0x0100
 488:	83 ff       	sbrs	r24, 3
 48a:	04 c0       	rjmp	.+8      	; 0x494 <main+0x2c8>
 48c:	4f 5f       	subi	r20, 0xFF	; 255
 48e:	5f 4f       	sbci	r21, 0xFF	; 255
 490:	6f 4f       	sbci	r22, 0xFF	; 255
 492:	7f 4f       	sbci	r23, 0xFF	; 255
 494:	81 e0       	ldi	r24, 0x01	; 1
 496:	90 e0       	ldi	r25, 0x00	; 0
 498:	41 39       	cpi	r20, 0x91	; 145
 49a:	e0 ed       	ldi	r30, 0xD0	; 208
 49c:	5e 07       	cpc	r21, r30
 49e:	e3 e0       	ldi	r30, 0x03	; 3
 4a0:	6e 07       	cpc	r22, r30
 4a2:	e0 e0       	ldi	r30, 0x00	; 0
 4a4:	7e 07       	cpc	r23, r30
 4a6:	20 f7       	brcc	.-56     	; 0x470 <main+0x2a4>
 4a8:	80 e0       	ldi	r24, 0x00	; 0
 4aa:	90 e0       	ldi	r25, 0x00	; 0
 4ac:	30 91 c0 00 	lds	r19, 0x00C0
 4b0:	37 ff       	sbrs	r19, 7
 4b2:	e2 cf       	rjmp	.-60     	; 0x478 <main+0x2ac>
 4b4:	01 96       	adiw	r24, 0x01	; 1
 4b6:	81 30       	cpi	r24, 0x01	; 1
 4b8:	91 05       	cpc	r25, r1
 4ba:	71 f0       	breq	.+28     	; 0x4d8 <main+0x30c>
 4bc:	00 00       	nop
 4be:	80 91 c0 00 	lds	r24, 0x00C0
 4c2:	8d 7f       	andi	r24, 0xFD	; 253
 4c4:	80 93 c0 00 	sts	0x00C0, r24
 4c8:	81 e1       	ldi	r24, 0x11	; 17
 4ca:	80 93 57 00 	sts	0x0057, r24
 4ce:	e8 95       	spm
 4d0:	ee 27       	eor	r30, r30
 4d2:	ff 27       	eor	r31, r31
 4d4:	09 94       	ijmp
 4d6:	ff cf       	rjmp	.-2      	; 0x4d6 <main+0x30a>
 4d8:	aa 24       	eor	r10, r10
 4da:	bb 24       	eor	r11, r11
 4dc:	65 01       	movw	r12, r10
 4de:	ee 24       	eor	r14, r14
 4e0:	ff 24       	eor	r15, r15
 4e2:	87 01       	movw	r16, r14
 4e4:	f2 e0       	ldi	r31, 0x02	; 2
 4e6:	c2 5e       	subi	r28, 0xE2	; 226
 4e8:	de 4f       	sbci	r29, 0xFE	; 254
 4ea:	f8 83       	st	Y, r31
 4ec:	ce 51       	subi	r28, 0x1E	; 30
 4ee:	d1 40       	sbci	r29, 0x01	; 1
 4f0:	22 24       	eor	r2, r2
 4f2:	33 24       	eor	r3, r3
 4f4:	cb be       	out	0x3b, r12	; 59
 4f6:	f5 01       	movw	r30, r10
 4f8:	47 90       	elpm	r4, Z+
 4fa:	56 90       	elpm	r5, Z+
 4fc:	40 e0       	ldi	r20, 0x00	; 0
 4fe:	50 e0       	ldi	r21, 0x00	; 0
 500:	30 e0       	ldi	r19, 0x00	; 0
 502:	c2 5e       	subi	r28, 0xE2	; 226
 504:	de 4f       	sbci	r29, 0xFE	; 254
 506:	68 81       	ld	r22, Y
 508:	ce 51       	subi	r28, 0x1E	; 30
 50a:	d1 40       	sbci	r29, 0x01	; 1
 50c:	81 30       	cpi	r24, 0x01	; 1
 50e:	91 05       	cpc	r25, r1
 510:	f1 f0       	breq	.+60     	; 0x54e <main+0x382>
 512:	80 e0       	ldi	r24, 0x00	; 0
 514:	90 e0       	ldi	r25, 0x00	; 0
 516:	dc 01       	movw	r26, r24
 518:	70 91 c0 00 	lds	r23, 0x00C0
 51c:	77 fd       	sbrc	r23, 7
 51e:	17 c0       	rjmp	.+46     	; 0x54e <main+0x382>
 520:	01 96       	adiw	r24, 0x01	; 1
 522:	a1 1d       	adc	r26, r1
 524:	b1 1d       	adc	r27, r1
 526:	81 30       	cpi	r24, 0x01	; 1
 528:	72 e1       	ldi	r23, 0x12	; 18
 52a:	97 07       	cpc	r25, r23
 52c:	7a e7       	ldi	r23, 0x7A	; 122
 52e:	a7 07       	cpc	r26, r23
 530:	70 e0       	ldi	r23, 0x00	; 0
 532:	b7 07       	cpc	r27, r23
 534:	88 f3       	brcs	.-30     	; 0x518 <main+0x34c>
 536:	8f ef       	ldi	r24, 0xFF	; 255
 538:	48 16       	cp	r4, r24
 53a:	8f ef       	ldi	r24, 0xFF	; 255
 53c:	58 06       	cpc	r5, r24
 53e:	49 f3       	breq	.-46     	; 0x512 <main+0x346>
 540:	ee 27       	eor	r30, r30
 542:	ff 27       	eor	r31, r31
 544:	09 94       	ijmp
 546:	80 e0       	ldi	r24, 0x00	; 0
 548:	90 e0       	ldi	r25, 0x00	; 0
 54a:	dc 01       	movw	r26, r24
 54c:	e5 cf       	rjmp	.-54     	; 0x518 <main+0x34c>
 54e:	70 91 c6 00 	lds	r23, 0x00C6
 552:	33 30       	cpi	r19, 0x03	; 3
 554:	09 f4       	brne	.+2      	; 0x558 <main+0x38c>
 556:	d0 c0       	rjmp	.+416    	; 0x6f8 <main+0x52c>
 558:	34 30       	cpi	r19, 0x04	; 4
 55a:	68 f4       	brcc	.+26     	; 0x576 <main+0x3aa>
 55c:	31 30       	cpi	r19, 0x01	; 1
 55e:	09 f4       	brne	.+2      	; 0x562 <main+0x396>
 560:	d8 c0       	rjmp	.+432    	; 0x712 <main+0x546>
 562:	32 30       	cpi	r19, 0x02	; 2
 564:	08 f4       	brcc	.+2      	; 0x568 <main+0x39c>
 566:	cf c0       	rjmp	.+414    	; 0x706 <main+0x53a>
 568:	57 2f       	mov	r21, r23
 56a:	40 e0       	ldi	r20, 0x00	; 0
 56c:	27 27       	eor	r18, r23
 56e:	33 e0       	ldi	r19, 0x03	; 3
 570:	80 e0       	ldi	r24, 0x00	; 0
 572:	90 e0       	ldi	r25, 0x00	; 0
 574:	cb cf       	rjmp	.-106    	; 0x50c <main+0x340>
 576:	35 30       	cpi	r19, 0x05	; 5
 578:	09 f4       	brne	.+2      	; 0x57c <main+0x3b0>
 57a:	ad c0       	rjmp	.+346    	; 0x6d6 <main+0x50a>
 57c:	35 30       	cpi	r19, 0x05	; 5
 57e:	08 f4       	brcc	.+2      	; 0x582 <main+0x3b6>
 580:	a3 c0       	rjmp	.+326    	; 0x6c8 <main+0x4fc>
 582:	36 30       	cpi	r19, 0x06	; 6
 584:	09 f4       	brne	.+2      	; 0x588 <main+0x3bc>
 586:	9b c0       	rjmp	.+310    	; 0x6be <main+0x4f2>
 588:	37 30       	cpi	r19, 0x07	; 7
 58a:	91 f7       	brne	.-28     	; 0x570 <main+0x3a4>
 58c:	c2 5e       	subi	r28, 0xE2	; 226
 58e:	de 4f       	sbci	r29, 0xFE	; 254
 590:	68 83       	st	Y, r22
 592:	ce 51       	subi	r28, 0x1E	; 30
 594:	d1 40       	sbci	r29, 0x01	; 1
 596:	69 81       	ldd	r22, Y+1	; 0x01
 598:	63 31       	cpi	r22, 0x13	; 19
 59a:	09 f4       	brne	.+2      	; 0x59e <main+0x3d2>
 59c:	d6 c2       	rjmp	.+1452   	; 0xb4a <main+0x97e>
 59e:	64 31       	cpi	r22, 0x14	; 20
 5a0:	08 f0       	brcs	.+2      	; 0x5a4 <main+0x3d8>
 5a2:	bf c0       	rjmp	.+382    	; 0x722 <main+0x556>
 5a4:	66 30       	cpi	r22, 0x06	; 6
 5a6:	09 f4       	brne	.+2      	; 0x5aa <main+0x3de>
 5a8:	97 c2       	rjmp	.+1326   	; 0xad8 <main+0x90c>
 5aa:	67 30       	cpi	r22, 0x07	; 7
 5ac:	08 f0       	brcs	.+2      	; 0x5b0 <main+0x3e4>
 5ae:	08 c1       	rjmp	.+528    	; 0x7c0 <main+0x5f4>
 5b0:	62 30       	cpi	r22, 0x02	; 2
 5b2:	09 f4       	brne	.+2      	; 0x5b6 <main+0x3ea>
 5b4:	bc c2       	rjmp	.+1400   	; 0xb2e <main+0x962>
 5b6:	63 30       	cpi	r22, 0x03	; 3
 5b8:	09 f4       	brne	.+2      	; 0x5bc <main+0x3f0>
 5ba:	7f c2       	rjmp	.+1278   	; 0xaba <main+0x8ee>
 5bc:	61 30       	cpi	r22, 0x01	; 1
 5be:	09 f4       	brne	.+2      	; 0x5c2 <main+0x3f6>
 5c0:	30 c2       	rjmp	.+1120   	; 0xa22 <main+0x856>
 5c2:	f0 ec       	ldi	r31, 0xC0	; 192
 5c4:	fa 83       	std	Y+2, r31	; 0x02
 5c6:	40 e0       	ldi	r20, 0x00	; 0
 5c8:	82 e0       	ldi	r24, 0x02	; 2
 5ca:	90 e0       	ldi	r25, 0x00	; 0
 5cc:	2b e1       	ldi	r18, 0x1B	; 27
 5ce:	92 2e       	mov	r9, r18
 5d0:	90 92 c6 00 	sts	0x00C6, r9
 5d4:	20 91 c0 00 	lds	r18, 0x00C0
 5d8:	26 ff       	sbrs	r18, 6
 5da:	fc cf       	rjmp	.-8      	; 0x5d4 <main+0x408>
 5dc:	20 91 c0 00 	lds	r18, 0x00C0
 5e0:	20 64       	ori	r18, 0x40	; 64
 5e2:	20 93 c0 00 	sts	0x00C0, r18
 5e6:	c2 5e       	subi	r28, 0xE2	; 226
 5e8:	de 4f       	sbci	r29, 0xFE	; 254
 5ea:	28 81       	ld	r18, Y
 5ec:	ce 51       	subi	r28, 0x1E	; 30
 5ee:	d1 40       	sbci	r29, 0x01	; 1
 5f0:	20 93 c6 00 	sts	0x00C6, r18
 5f4:	20 91 c0 00 	lds	r18, 0x00C0
 5f8:	26 ff       	sbrs	r18, 6
 5fa:	fc cf       	rjmp	.-8      	; 0x5f4 <main+0x428>
 5fc:	20 91 c0 00 	lds	r18, 0x00C0
 600:	20 64       	ori	r18, 0x40	; 64
 602:	20 93 c0 00 	sts	0x00C0, r18
 606:	39 2f       	mov	r19, r25
 608:	90 93 c6 00 	sts	0x00C6, r25
 60c:	20 91 c0 00 	lds	r18, 0x00C0
 610:	26 ff       	sbrs	r18, 6
 612:	fc cf       	rjmp	.-8      	; 0x60c <main+0x440>
 614:	20 91 c0 00 	lds	r18, 0x00C0
 618:	20 64       	ori	r18, 0x40	; 64
 61a:	20 93 c0 00 	sts	0x00C0, r18
 61e:	58 2f       	mov	r21, r24
 620:	80 93 c6 00 	sts	0x00C6, r24
 624:	20 91 c0 00 	lds	r18, 0x00C0
 628:	26 ff       	sbrs	r18, 6
 62a:	fc cf       	rjmp	.-8      	; 0x624 <main+0x458>
 62c:	20 91 c0 00 	lds	r18, 0x00C0
 630:	20 64       	ori	r18, 0x40	; 64
 632:	20 93 c0 00 	sts	0x00C0, r18
 636:	2e e0       	ldi	r18, 0x0E	; 14
 638:	20 93 c6 00 	sts	0x00C6, r18
 63c:	20 91 c0 00 	lds	r18, 0x00C0
 640:	26 ff       	sbrs	r18, 6
 642:	fc cf       	rjmp	.-8      	; 0x63c <main+0x470>
 644:	20 91 c0 00 	lds	r18, 0x00C0
 648:	20 64       	ori	r18, 0x40	; 64
 64a:	20 93 c0 00 	sts	0x00C0, r18
 64e:	25 e1       	ldi	r18, 0x15	; 21
 650:	c2 5e       	subi	r28, 0xE2	; 226
 652:	de 4f       	sbci	r29, 0xFE	; 254
 654:	68 81       	ld	r22, Y
 656:	ce 51       	subi	r28, 0x1E	; 30
 658:	d1 40       	sbci	r29, 0x01	; 1
 65a:	26 27       	eor	r18, r22
 65c:	25 27       	eor	r18, r21
 65e:	23 27       	eor	r18, r19
 660:	00 97       	sbiw	r24, 0x00	; 0
 662:	89 f0       	breq	.+34     	; 0x686 <main+0x4ba>
 664:	fe 01       	movw	r30, r28
 666:	31 96       	adiw	r30, 0x01	; 1
 668:	51 91       	ld	r21, Z+
 66a:	50 93 c6 00 	sts	0x00C6, r21
 66e:	30 91 c0 00 	lds	r19, 0x00C0
 672:	36 ff       	sbrs	r19, 6
 674:	fc cf       	rjmp	.-8      	; 0x66e <main+0x4a2>
 676:	30 91 c0 00 	lds	r19, 0x00C0
 67a:	30 64       	ori	r19, 0x40	; 64
 67c:	30 93 c0 00 	sts	0x00C0, r19
 680:	25 27       	eor	r18, r21
 682:	01 97       	sbiw	r24, 0x01	; 1
 684:	89 f7       	brne	.-30     	; 0x668 <main+0x49c>
 686:	20 93 c6 00 	sts	0x00C6, r18
 68a:	80 91 c0 00 	lds	r24, 0x00C0
 68e:	86 ff       	sbrs	r24, 6
 690:	fc cf       	rjmp	.-8      	; 0x68a <main+0x4be>
 692:	80 91 c0 00 	lds	r24, 0x00C0
 696:	80 64       	ori	r24, 0x40	; 64
 698:	80 93 c0 00 	sts	0x00C0, r24
 69c:	44 23       	and	r20, r20
 69e:	09 f0       	breq	.+2      	; 0x6a2 <main+0x4d6>
 6a0:	0d cf       	rjmp	.-486    	; 0x4bc <main+0x2f0>
 6a2:	c2 5e       	subi	r28, 0xE2	; 226
 6a4:	de 4f       	sbci	r29, 0xFE	; 254
 6a6:	78 81       	ld	r23, Y
 6a8:	ce 51       	subi	r28, 0x1E	; 30
 6aa:	d1 40       	sbci	r29, 0x01	; 1
 6ac:	7f 5f       	subi	r23, 0xFF	; 255
 6ae:	c2 5e       	subi	r28, 0xE2	; 226
 6b0:	de 4f       	sbci	r29, 0xFE	; 254
 6b2:	78 83       	st	Y, r23
 6b4:	ce 51       	subi	r28, 0x1E	; 30
 6b6:	d1 40       	sbci	r29, 0x01	; 1
 6b8:	80 e0       	ldi	r24, 0x00	; 0
 6ba:	90 e0       	ldi	r25, 0x00	; 0
 6bc:	1f cf       	rjmp	.-450    	; 0x4fc <main+0x330>
 6be:	72 17       	cp	r23, r18
 6c0:	09 f4       	brne	.+2      	; 0x6c4 <main+0x4f8>
 6c2:	64 cf       	rjmp	.-312    	; 0x58c <main+0x3c0>
 6c4:	30 e0       	ldi	r19, 0x00	; 0
 6c6:	54 cf       	rjmp	.-344    	; 0x570 <main+0x3a4>
 6c8:	7e 30       	cpi	r23, 0x0E	; 14
 6ca:	e1 f7       	brne	.-8      	; 0x6c4 <main+0x4f8>
 6cc:	27 27       	eor	r18, r23
 6ce:	22 24       	eor	r2, r2
 6d0:	33 24       	eor	r3, r3
 6d2:	35 e0       	ldi	r19, 0x05	; 5
 6d4:	4d cf       	rjmp	.-358    	; 0x570 <main+0x3a4>
 6d6:	e1 e0       	ldi	r30, 0x01	; 1
 6d8:	f0 e0       	ldi	r31, 0x00	; 0
 6da:	ec 0f       	add	r30, r28
 6dc:	fd 1f       	adc	r31, r29
 6de:	e2 0d       	add	r30, r2
 6e0:	f3 1d       	adc	r31, r3
 6e2:	70 83       	st	Z, r23
 6e4:	08 94       	sec
 6e6:	21 1c       	adc	r2, r1
 6e8:	31 1c       	adc	r3, r1
 6ea:	27 27       	eor	r18, r23
 6ec:	24 16       	cp	r2, r20
 6ee:	35 06       	cpc	r3, r21
 6f0:	09 f0       	breq	.+2      	; 0x6f4 <main+0x528>
 6f2:	3e cf       	rjmp	.-388    	; 0x570 <main+0x3a4>
 6f4:	36 e0       	ldi	r19, 0x06	; 6
 6f6:	3c cf       	rjmp	.-392    	; 0x570 <main+0x3a4>
 6f8:	87 2f       	mov	r24, r23
 6fa:	90 e0       	ldi	r25, 0x00	; 0
 6fc:	48 2b       	or	r20, r24
 6fe:	59 2b       	or	r21, r25
 700:	27 27       	eor	r18, r23
 702:	34 e0       	ldi	r19, 0x04	; 4
 704:	35 cf       	rjmp	.-406    	; 0x570 <main+0x3a4>
 706:	7b 31       	cpi	r23, 0x1B	; 27
 708:	09 f0       	breq	.+2      	; 0x70c <main+0x540>
 70a:	32 cf       	rjmp	.-412    	; 0x570 <main+0x3a4>
 70c:	2b e1       	ldi	r18, 0x1B	; 27
 70e:	31 e0       	ldi	r19, 0x01	; 1
 710:	2f cf       	rjmp	.-418    	; 0x570 <main+0x3a4>
 712:	71 30       	cpi	r23, 0x01	; 1
 714:	11 f0       	breq	.+4      	; 0x71a <main+0x54e>
 716:	76 17       	cp	r23, r22
 718:	a9 f6       	brne	.-86     	; 0x6c4 <main+0x4f8>
 71a:	27 27       	eor	r18, r23
 71c:	67 2f       	mov	r22, r23
 71e:	32 e0       	ldi	r19, 0x02	; 2
 720:	27 cf       	rjmp	.-434    	; 0x570 <main+0x3a4>
 722:	68 31       	cpi	r22, 0x18	; 24
 724:	09 f4       	brne	.+2      	; 0x728 <main+0x55c>
 726:	b4 c1       	rjmp	.+872    	; 0xa90 <main+0x8c4>
 728:	69 31       	cpi	r22, 0x19	; 25
 72a:	08 f0       	brcs	.+2      	; 0x72e <main+0x562>
 72c:	5a c0       	rjmp	.+180    	; 0x7e2 <main+0x616>
 72e:	65 31       	cpi	r22, 0x15	; 21
 730:	09 f4       	brne	.+2      	; 0x734 <main+0x568>
 732:	0b c2       	rjmp	.+1046   	; 0xb4a <main+0x97e>
 734:	65 31       	cpi	r22, 0x15	; 21
 736:	08 f0       	brcs	.+2      	; 0x73a <main+0x56e>
 738:	50 c0       	rjmp	.+160    	; 0x7da <main+0x60e>
 73a:	7a 81       	ldd	r23, Y+2	; 0x02
 73c:	cc 5d       	subi	r28, 0xDC	; 220
 73e:	de 4f       	sbci	r29, 0xFE	; 254
 740:	78 83       	st	Y, r23
 742:	c4 52       	subi	r28, 0x24	; 36
 744:	d1 40       	sbci	r29, 0x01	; 1
 746:	cd 5d       	subi	r28, 0xDD	; 221
 748:	de 4f       	sbci	r29, 0xFE	; 254
 74a:	18 82       	st	Y, r1
 74c:	c3 52       	subi	r28, 0x23	; 35
 74e:	d1 40       	sbci	r29, 0x01	; 1
 750:	4b 81       	ldd	r20, Y+3	; 0x03
 752:	50 e0       	ldi	r21, 0x00	; 0
 754:	cd 5d       	subi	r28, 0xDD	; 221
 756:	de 4f       	sbci	r29, 0xFE	; 254
 758:	88 81       	ld	r24, Y
 75a:	99 81       	ldd	r25, Y+1	; 0x01
 75c:	c3 52       	subi	r28, 0x23	; 35
 75e:	d1 40       	sbci	r29, 0x01	; 1
 760:	48 2b       	or	r20, r24
 762:	59 2b       	or	r21, r25
 764:	ca 01       	movw	r24, r20
 766:	03 96       	adiw	r24, 0x03	; 3
 768:	1a 82       	std	Y+2, r1	; 0x02
 76a:	64 31       	cpi	r22, 0x14	; 20
 76c:	09 f4       	brne	.+2      	; 0x770 <main+0x5a4>
 76e:	70 c1       	rjmp	.+736    	; 0xa50 <main+0x884>
 770:	fe 01       	movw	r30, r28
 772:	33 96       	adiw	r30, 0x03	; 3
 774:	3a 01       	movw	r6, r20
 776:	08 94       	sec
 778:	61 08       	sbc	r6, r1
 77a:	71 08       	sbc	r7, r1
 77c:	88 24       	eor	r8, r8
 77e:	99 24       	eor	r9, r9
 780:	08 94       	sec
 782:	61 1c       	adc	r6, r1
 784:	71 1c       	adc	r7, r1
 786:	81 1c       	adc	r8, r1
 788:	91 1c       	adc	r9, r1
 78a:	6e 0c       	add	r6, r14
 78c:	7f 1c       	adc	r7, r15
 78e:	80 1e       	adc	r8, r16
 790:	91 1e       	adc	r9, r17
 792:	9c 01       	movw	r18, r24
 794:	e1 bc       	out	0x21, r14	; 33
 796:	bb 27       	eor	r27, r27
 798:	a1 2f       	mov	r26, r17
 79a:	90 2f       	mov	r25, r16
 79c:	8f 2d       	mov	r24, r15
 79e:	82 bd       	out	0x22, r24	; 34
 7a0:	08 94       	sec
 7a2:	e1 1c       	adc	r14, r1
 7a4:	f1 1c       	adc	r15, r1
 7a6:	01 1d       	adc	r16, r1
 7a8:	11 1d       	adc	r17, r1
 7aa:	f8 9a       	sbi	0x1f, 0	; 31
 7ac:	80 b5       	in	r24, 0x20	; 32
 7ae:	81 93       	st	Z+, r24
 7b0:	df 01       	movw	r26, r30
 7b2:	e6 14       	cp	r14, r6
 7b4:	f7 04       	cpc	r15, r7
 7b6:	08 05       	cpc	r16, r8
 7b8:	19 05       	cpc	r17, r9
 7ba:	61 f7       	brne	.-40     	; 0x794 <main+0x5c8>
 7bc:	c9 01       	movw	r24, r18
 7be:	65 c1       	rjmp	.+714    	; 0xa8a <main+0x8be>
 7c0:	61 31       	cpi	r22, 0x11	; 17
 7c2:	09 f4       	brne	.+2      	; 0x7c6 <main+0x5fa>
 7c4:	60 c0       	rjmp	.+192    	; 0x886 <main+0x6ba>
 7c6:	62 31       	cpi	r22, 0x12	; 18
 7c8:	10 f1       	brcs	.+68     	; 0x80e <main+0x642>
 7ca:	1a 82       	std	Y+2, r1	; 0x02
 7cc:	40 e0       	ldi	r20, 0x00	; 0
 7ce:	82 e0       	ldi	r24, 0x02	; 2
 7d0:	90 e0       	ldi	r25, 0x00	; 0
 7d2:	aa 24       	eor	r10, r10
 7d4:	bb 24       	eor	r11, r11
 7d6:	65 01       	movw	r12, r10
 7d8:	f9 ce       	rjmp	.-526    	; 0x5cc <main+0x400>
 7da:	66 31       	cpi	r22, 0x16	; 22
 7dc:	09 f0       	breq	.+2      	; 0x7e0 <main+0x614>
 7de:	f1 ce       	rjmp	.-542    	; 0x5c2 <main+0x3f6>
 7e0:	ac cf       	rjmp	.-168    	; 0x73a <main+0x56e>
 7e2:	6a 31       	cpi	r22, 0x1A	; 26
 7e4:	59 f1       	breq	.+86     	; 0x83c <main+0x670>
 7e6:	6a 31       	cpi	r22, 0x1A	; 26
 7e8:	b0 f4       	brcc	.+44     	; 0x816 <main+0x64a>
 7ea:	8d 81       	ldd	r24, Y+5	; 0x05
 7ec:	83 6c       	ori	r24, 0xC3	; 195
 7ee:	99 e0       	ldi	r25, 0x09	; 9
 7f0:	e1 e0       	ldi	r30, 0x01	; 1
 7f2:	f0 e0       	ldi	r31, 0x00	; 0
 7f4:	08 2e       	mov	r0, r24
 7f6:	90 93 57 00 	sts	0x0057, r25
 7fa:	e8 95       	spm
 7fc:	07 b6       	in	r0, 0x37	; 55
 7fe:	00 fc       	sbrc	r0, 0
 800:	fd cf       	rjmp	.-6      	; 0x7fc <main+0x630>
 802:	1a 82       	std	Y+2, r1	; 0x02
 804:	1b 82       	std	Y+3, r1	; 0x03
 806:	40 e0       	ldi	r20, 0x00	; 0
 808:	83 e0       	ldi	r24, 0x03	; 3
 80a:	90 e0       	ldi	r25, 0x00	; 0
 80c:	df ce       	rjmp	.-578    	; 0x5cc <main+0x400>
 80e:	60 31       	cpi	r22, 0x10	; 16
 810:	09 f0       	breq	.+2      	; 0x814 <main+0x648>
 812:	d7 ce       	rjmp	.-594    	; 0x5c2 <main+0x3f6>
 814:	8c c1       	rjmp	.+792    	; 0xb2e <main+0x962>
 816:	6b 31       	cpi	r22, 0x1B	; 27
 818:	f1 f0       	breq	.+60     	; 0x856 <main+0x68a>
 81a:	6d 31       	cpi	r22, 0x1D	; 29
 81c:	09 f0       	breq	.+2      	; 0x820 <main+0x654>
 81e:	d1 ce       	rjmp	.-606    	; 0x5c2 <main+0x3f6>
 820:	9d 81       	ldd	r25, Y+5	; 0x05
 822:	90 33       	cpi	r25, 0x30	; 48
 824:	29 f1       	breq	.+74     	; 0x870 <main+0x6a4>
 826:	80 e0       	ldi	r24, 0x00	; 0
 828:	1a 82       	std	Y+2, r1	; 0x02
 82a:	1b 82       	std	Y+3, r1	; 0x03
 82c:	9c 83       	std	Y+4, r25	; 0x04
 82e:	1d 82       	std	Y+5, r1	; 0x05
 830:	8e 83       	std	Y+6, r24	; 0x06
 832:	1f 82       	std	Y+7, r1	; 0x07
 834:	40 e0       	ldi	r20, 0x00	; 0
 836:	87 e0       	ldi	r24, 0x07	; 7
 838:	90 e0       	ldi	r25, 0x00	; 0
 83a:	c8 ce       	rjmp	.-624    	; 0x5cc <main+0x400>
 83c:	1a 82       	std	Y+2, r1	; 0x02
 83e:	e1 e0       	ldi	r30, 0x01	; 1
 840:	f0 e0       	ldi	r31, 0x00	; 0
 842:	89 e0       	ldi	r24, 0x09	; 9
 844:	80 93 57 00 	sts	0x0057, r24
 848:	84 91       	lpm	r24, Z+
 84a:	8b 83       	std	Y+3, r24	; 0x03
 84c:	1c 82       	std	Y+4, r1	; 0x04
 84e:	40 e0       	ldi	r20, 0x00	; 0
 850:	84 e0       	ldi	r24, 0x04	; 4
 852:	90 e0       	ldi	r25, 0x00	; 0
 854:	bb ce       	rjmp	.-650    	; 0x5cc <main+0x400>
 856:	8d 81       	ldd	r24, Y+5	; 0x05
 858:	88 23       	and	r24, r24
 85a:	99 f0       	breq	.+38     	; 0x882 <main+0x6b6>
 85c:	81 30       	cpi	r24, 0x01	; 1
 85e:	79 f0       	breq	.+30     	; 0x87e <main+0x6b2>
 860:	81 e0       	ldi	r24, 0x01	; 1
 862:	1a 82       	std	Y+2, r1	; 0x02
 864:	8b 83       	std	Y+3, r24	; 0x03
 866:	1c 82       	std	Y+4, r1	; 0x04
 868:	40 e0       	ldi	r20, 0x00	; 0
 86a:	84 e0       	ldi	r24, 0x04	; 4
 86c:	90 e0       	ldi	r25, 0x00	; 0
 86e:	ae ce       	rjmp	.-676    	; 0x5cc <main+0x400>
 870:	8f 81       	ldd	r24, Y+7	; 0x07
 872:	88 23       	and	r24, r24
 874:	79 f0       	breq	.+30     	; 0x894 <main+0x6c8>
 876:	81 30       	cpi	r24, 0x01	; 1
 878:	59 f0       	breq	.+22     	; 0x890 <main+0x6c4>
 87a:	81 e0       	ldi	r24, 0x01	; 1
 87c:	d5 cf       	rjmp	.-86     	; 0x828 <main+0x65c>
 87e:	88 e9       	ldi	r24, 0x98	; 152
 880:	f0 cf       	rjmp	.-32     	; 0x862 <main+0x696>
 882:	8e e1       	ldi	r24, 0x1E	; 30
 884:	ee cf       	rjmp	.-36     	; 0x862 <main+0x696>
 886:	1a 82       	std	Y+2, r1	; 0x02
 888:	41 e0       	ldi	r20, 0x01	; 1
 88a:	82 e0       	ldi	r24, 0x02	; 2
 88c:	90 e0       	ldi	r25, 0x00	; 0
 88e:	9e ce       	rjmp	.-708    	; 0x5cc <main+0x400>
 890:	88 e9       	ldi	r24, 0x98	; 152
 892:	ca cf       	rjmp	.-108    	; 0x828 <main+0x65c>
 894:	87 e3       	ldi	r24, 0x37	; 55
 896:	0e 94 b3 00 	call	0x166	; 0x166 <draw_line.clone.0>
 89a:	8b e3       	ldi	r24, 0x3B	; 59
 89c:	0e 94 b3 00 	call	0x166	; 0x166 <draw_line.clone.0>
 8a0:	85 e1       	ldi	r24, 0x15	; 21
 8a2:	0e 94 aa 00 	call	0x154	; 0x154 <send_command>
 8a6:	80 e0       	ldi	r24, 0x00	; 0
 8a8:	0e 94 aa 00 	call	0x154	; 0x154 <send_command>
 8ac:	80 e0       	ldi	r24, 0x00	; 0
 8ae:	0e 94 aa 00 	call	0x154	; 0x154 <send_command>
 8b2:	85 e7       	ldi	r24, 0x75	; 117
 8b4:	0e 94 aa 00 	call	0x154	; 0x154 <send_command>
 8b8:	88 e3       	ldi	r24, 0x38	; 56
 8ba:	0e 94 aa 00 	call	0x154	; 0x154 <send_command>
 8be:	8a e3       	ldi	r24, 0x3A	; 58
 8c0:	0e 94 aa 00 	call	0x154	; 0x154 <send_command>
 8c4:	80 ef       	ldi	r24, 0xF0	; 240
 8c6:	0e 94 af 00 	call	0x15e	; 0x15e <send_char>
 8ca:	80 ef       	ldi	r24, 0xF0	; 240
 8cc:	0e 94 af 00 	call	0x15e	; 0x15e <send_char>
 8d0:	80 ef       	ldi	r24, 0xF0	; 240
 8d2:	0e 94 af 00 	call	0x15e	; 0x15e <send_char>
 8d6:	85 e1       	ldi	r24, 0x15	; 21
 8d8:	0e 94 aa 00 	call	0x154	; 0x154 <send_command>
 8dc:	8f e3       	ldi	r24, 0x3F	; 63
 8de:	0e 94 aa 00 	call	0x154	; 0x154 <send_command>
 8e2:	80 e4       	ldi	r24, 0x40	; 64
 8e4:	0e 94 aa 00 	call	0x154	; 0x154 <send_command>
 8e8:	85 e7       	ldi	r24, 0x75	; 117
 8ea:	0e 94 aa 00 	call	0x154	; 0x154 <send_command>
 8ee:	88 e3       	ldi	r24, 0x38	; 56
 8f0:	0e 94 aa 00 	call	0x154	; 0x154 <send_command>
 8f4:	8a e3       	ldi	r24, 0x3A	; 58
 8f6:	0e 94 aa 00 	call	0x154	; 0x154 <send_command>
 8fa:	8f e0       	ldi	r24, 0x0F	; 15
 8fc:	0e 94 af 00 	call	0x15e	; 0x15e <send_char>
 900:	8f e0       	ldi	r24, 0x0F	; 15
 902:	0e 94 af 00 	call	0x15e	; 0x15e <send_char>
 906:	8f e0       	ldi	r24, 0x0F	; 15
 908:	0e 94 af 00 	call	0x15e	; 0x15e <send_char>
 90c:	90 e0       	ldi	r25, 0x00	; 0
 90e:	8f e0       	ldi	r24, 0x0F	; 15
 910:	68 2e       	mov	r6, r24
 912:	25 e0       	ldi	r18, 0x05	; 5
 914:	85 e1       	ldi	r24, 0x15	; 21
 916:	cb 5d       	subi	r28, 0xDB	; 219
 918:	de 4f       	sbci	r29, 0xFE	; 254
 91a:	28 83       	st	Y, r18
 91c:	c5 52       	subi	r28, 0x25	; 37
 91e:	d1 40       	sbci	r29, 0x01	; 1
 920:	ca 5d       	subi	r28, 0xDA	; 218
 922:	de 4f       	sbci	r29, 0xFE	; 254
 924:	98 83       	st	Y, r25
 926:	c6 52       	subi	r28, 0x26	; 38
 928:	d1 40       	sbci	r29, 0x01	; 1
 92a:	0e 94 aa 00 	call	0x154	; 0x154 <send_command>
 92e:	86 2d       	mov	r24, r6
 930:	0e 94 aa 00 	call	0x154	; 0x154 <send_command>
 934:	86 2d       	mov	r24, r6
 936:	8e 5f       	subi	r24, 0xFE	; 254
 938:	0e 94 aa 00 	call	0x154	; 0x154 <send_command>
 93c:	85 e7       	ldi	r24, 0x75	; 117
 93e:	0e 94 aa 00 	call	0x154	; 0x154 <send_command>
 942:	8f e2       	ldi	r24, 0x2F	; 47
 944:	0e 94 aa 00 	call	0x154	; 0x154 <send_command>
 948:	84 e3       	ldi	r24, 0x34	; 52
 94a:	0e 94 aa 00 	call	0x154	; 0x154 <send_command>
 94e:	cb 5d       	subi	r28, 0xDB	; 219
 950:	de 4f       	sbci	r29, 0xFE	; 254
 952:	28 81       	ld	r18, Y
 954:	c5 52       	subi	r28, 0x25	; 37
 956:	d1 40       	sbci	r29, 0x01	; 1
 958:	92 2e       	mov	r9, r18
 95a:	99 0c       	add	r9, r9
 95c:	92 0e       	add	r9, r18
 95e:	99 0c       	add	r9, r9
 960:	b6 e0       	ldi	r27, 0x06	; 6
 962:	8b 2e       	mov	r8, r27
 964:	89 0c       	add	r8, r9
 966:	ca 5d       	subi	r28, 0xDA	; 218
 968:	de 4f       	sbci	r29, 0xFE	; 254
 96a:	98 81       	ld	r25, Y
 96c:	c6 52       	subi	r28, 0x26	; 38
 96e:	d1 40       	sbci	r29, 0x01	; 1
 970:	79 2e       	mov	r7, r25
 972:	18 c0       	rjmp	.+48     	; 0x9a4 <main+0x7d8>
 974:	80 ef       	ldi	r24, 0xF0	; 240
 976:	94 fd       	sbrc	r25, 4
 978:	8f 60       	ori	r24, 0x0F	; 15
 97a:	ca 5d       	subi	r28, 0xDA	; 218
 97c:	de 4f       	sbci	r29, 0xFE	; 254
 97e:	98 83       	st	Y, r25
 980:	c6 52       	subi	r28, 0x26	; 38
 982:	d1 40       	sbci	r29, 0x01	; 1
 984:	0e 94 af 00 	call	0x15e	; 0x15e <send_char>
 988:	ca 5d       	subi	r28, 0xDA	; 218
 98a:	de 4f       	sbci	r29, 0xFE	; 254
 98c:	98 81       	ld	r25, Y
 98e:	c6 52       	subi	r28, 0x26	; 38
 990:	d1 40       	sbci	r29, 0x01	; 1
 992:	93 ff       	sbrs	r25, 3
 994:	22 c0       	rjmp	.+68     	; 0x9da <main+0x80e>
 996:	80 ef       	ldi	r24, 0xF0	; 240
 998:	92 fd       	sbrc	r25, 2
 99a:	8f 60       	ori	r24, 0x0F	; 15
 99c:	0e 94 af 00 	call	0x15e	; 0x15e <send_char>
 9a0:	98 14       	cp	r9, r8
 9a2:	f9 f0       	breq	.+62     	; 0x9e2 <main+0x816>
 9a4:	e9 2d       	mov	r30, r9
 9a6:	f0 e0       	ldi	r31, 0x00	; 0
 9a8:	e0 50       	subi	r30, 0x00	; 0
 9aa:	fe 4f       	sbci	r31, 0xFE	; 254
 9ac:	90 81       	ld	r25, Z
 9ae:	93 94       	inc	r9
 9b0:	97 fd       	sbrc	r25, 7
 9b2:	15 c0       	rjmp	.+42     	; 0x9de <main+0x812>
 9b4:	80 e0       	ldi	r24, 0x00	; 0
 9b6:	96 fd       	sbrc	r25, 6
 9b8:	8f 60       	ori	r24, 0x0F	; 15
 9ba:	ca 5d       	subi	r28, 0xDA	; 218
 9bc:	de 4f       	sbci	r29, 0xFE	; 254
 9be:	98 83       	st	Y, r25
 9c0:	c6 52       	subi	r28, 0x26	; 38
 9c2:	d1 40       	sbci	r29, 0x01	; 1
 9c4:	0e 94 af 00 	call	0x15e	; 0x15e <send_char>
 9c8:	ca 5d       	subi	r28, 0xDA	; 218
 9ca:	de 4f       	sbci	r29, 0xFE	; 254
 9cc:	98 81       	ld	r25, Y
 9ce:	c6 52       	subi	r28, 0x26	; 38
 9d0:	d1 40       	sbci	r29, 0x01	; 1
 9d2:	95 fd       	sbrc	r25, 5
 9d4:	cf cf       	rjmp	.-98     	; 0x974 <main+0x7a8>
 9d6:	80 e0       	ldi	r24, 0x00	; 0
 9d8:	ce cf       	rjmp	.-100    	; 0x976 <main+0x7aa>
 9da:	80 e0       	ldi	r24, 0x00	; 0
 9dc:	dd cf       	rjmp	.-70     	; 0x998 <main+0x7cc>
 9de:	80 ef       	ldi	r24, 0xF0	; 240
 9e0:	ea cf       	rjmp	.-44     	; 0x9b6 <main+0x7ea>
 9e2:	97 2d       	mov	r25, r7
 9e4:	9f 5f       	subi	r25, 0xFF	; 255
 9e6:	99 30       	cpi	r25, 0x09	; 9
 9e8:	09 f4       	brne	.+2      	; 0x9ec <main+0x820>
 9ea:	76 c1       	rjmp	.+748    	; 0xcd8 <main+0xb0c>
 9ec:	99 23       	and	r25, r25
 9ee:	09 f4       	brne	.+2      	; 0x9f2 <main+0x826>
 9f0:	71 c1       	rjmp	.+738    	; 0xcd4 <main+0xb08>
 9f2:	91 30       	cpi	r25, 0x01	; 1
 9f4:	09 f4       	brne	.+2      	; 0x9f8 <main+0x82c>
 9f6:	73 c1       	rjmp	.+742    	; 0xcde <main+0xb12>
 9f8:	89 2f       	mov	r24, r25
 9fa:	82 50       	subi	r24, 0x02	; 2
 9fc:	82 30       	cpi	r24, 0x02	; 2
 9fe:	08 f4       	brcc	.+2      	; 0xa02 <main+0x836>
 a00:	67 c1       	rjmp	.+718    	; 0xcd0 <main+0xb04>
 a02:	94 30       	cpi	r25, 0x04	; 4
 a04:	09 f4       	brne	.+2      	; 0xa08 <main+0x83c>
 a06:	62 c1       	rjmp	.+708    	; 0xccc <main+0xb00>
 a08:	95 30       	cpi	r25, 0x05	; 5
 a0a:	09 f4       	brne	.+2      	; 0xa0e <main+0x842>
 a0c:	5d c1       	rjmp	.+698    	; 0xcc8 <main+0xafc>
 a0e:	98 30       	cpi	r25, 0x08	; 8
 a10:	09 f4       	brne	.+2      	; 0xa14 <main+0x848>
 a12:	5a c1       	rjmp	.+692    	; 0xcc8 <main+0xafc>
 a14:	96 30       	cpi	r25, 0x06	; 6
 a16:	09 f4       	brne	.+2      	; 0xa1a <main+0x84e>
 a18:	55 c1       	rjmp	.+682    	; 0xcc4 <main+0xaf8>
 a1a:	23 e0       	ldi	r18, 0x03	; 3
 a1c:	a3 e0       	ldi	r26, 0x03	; 3
 a1e:	6a 0e       	add	r6, r26
 a20:	79 cf       	rjmp	.-270    	; 0x914 <main+0x748>
 a22:	1a 82       	std	Y+2, r1	; 0x02
 a24:	88 e0       	ldi	r24, 0x08	; 8
 a26:	8b 83       	std	Y+3, r24	; 0x03
 a28:	81 e4       	ldi	r24, 0x41	; 65
 a2a:	8c 83       	std	Y+4, r24	; 0x04
 a2c:	86 e5       	ldi	r24, 0x56	; 86
 a2e:	8d 83       	std	Y+5, r24	; 0x05
 a30:	82 e5       	ldi	r24, 0x52	; 82
 a32:	8e 83       	std	Y+6, r24	; 0x06
 a34:	89 e4       	ldi	r24, 0x49	; 73
 a36:	8f 83       	std	Y+7, r24	; 0x07
 a38:	83 e5       	ldi	r24, 0x53	; 83
 a3a:	88 87       	std	Y+8, r24	; 0x08
 a3c:	80 e5       	ldi	r24, 0x50	; 80
 a3e:	89 87       	std	Y+9, r24	; 0x09
 a40:	8f e5       	ldi	r24, 0x5F	; 95
 a42:	8a 87       	std	Y+10, r24	; 0x0a
 a44:	82 e3       	ldi	r24, 0x32	; 50
 a46:	8b 87       	std	Y+11, r24	; 0x0b
 a48:	40 e0       	ldi	r20, 0x00	; 0
 a4a:	8b e0       	ldi	r24, 0x0B	; 11
 a4c:	90 e0       	ldi	r25, 0x00	; 0
 a4e:	be cd       	rjmp	.-1156   	; 0x5cc <main+0x400>
 a50:	de 01       	movw	r26, r28
 a52:	13 96       	adiw	r26, 0x03	; 3
 a54:	ba 01       	movw	r22, r20
 a56:	9d 01       	movw	r18, r26
 a58:	37 01       	movw	r6, r14
 a5a:	48 01       	movw	r8, r16
 a5c:	7c 01       	movw	r14, r24
 a5e:	d4 01       	movw	r26, r8
 a60:	c3 01       	movw	r24, r6
 a62:	ab bf       	out	0x3b, r26	; 59
 a64:	fc 01       	movw	r30, r24
 a66:	47 91       	elpm	r20, Z+
 a68:	56 91       	elpm	r21, Z+
 a6a:	f9 01       	movw	r30, r18
 a6c:	40 83       	st	Z, r20
 a6e:	51 83       	std	Z+1, r21	; 0x01
 a70:	2e 5f       	subi	r18, 0xFE	; 254
 a72:	3f 4f       	sbci	r19, 0xFF	; 255
 a74:	02 96       	adiw	r24, 0x02	; 2
 a76:	a1 1d       	adc	r26, r1
 a78:	b1 1d       	adc	r27, r1
 a7a:	62 50       	subi	r22, 0x02	; 2
 a7c:	70 40       	sbci	r23, 0x00	; 0
 a7e:	89 f7       	brne	.-30     	; 0xa62 <main+0x896>
 a80:	a7 01       	movw	r20, r14
 a82:	7c 01       	movw	r14, r24
 a84:	8d 01       	movw	r16, r26
 a86:	d9 01       	movw	r26, r18
 a88:	ca 01       	movw	r24, r20
 a8a:	1c 92       	st	X, r1
 a8c:	40 e0       	ldi	r20, 0x00	; 0
 a8e:	9e cd       	rjmp	.-1220   	; 0x5cc <main+0x400>
 a90:	8b 81       	ldd	r24, Y+3	; 0x03
 a92:	80 35       	cpi	r24, 0x50	; 80
 a94:	39 f0       	breq	.+14     	; 0xaa4 <main+0x8d8>
 a96:	e3 e0       	ldi	r30, 0x03	; 3
 a98:	f0 e0       	ldi	r31, 0x00	; 0
 a9a:	89 e0       	ldi	r24, 0x09	; 9
 a9c:	80 93 57 00 	sts	0x0057, r24
 aa0:	84 91       	lpm	r24, Z+
 aa2:	df ce       	rjmp	.-578    	; 0x862 <main+0x696>
 aa4:	8c 81       	ldd	r24, Y+4	; 0x04
 aa6:	88 30       	cpi	r24, 0x08	; 8
 aa8:	09 f4       	brne	.+2      	; 0xaac <main+0x8e0>
 aaa:	46 c0       	rjmp	.+140    	; 0xb38 <main+0x96c>
 aac:	89 e0       	ldi	r24, 0x09	; 9
 aae:	e0 e0       	ldi	r30, 0x00	; 0
 ab0:	f0 e0       	ldi	r31, 0x00	; 0
 ab2:	80 93 57 00 	sts	0x0057, r24
 ab6:	84 91       	lpm	r24, Z+
 ab8:	d4 ce       	rjmp	.-600    	; 0x862 <main+0x696>
 aba:	ea 81       	ldd	r30, Y+2	; 0x02
 abc:	e0 58       	subi	r30, 0x80	; 128
 abe:	e3 31       	cpi	r30, 0x13	; 19
 ac0:	08 f0       	brcs	.+2      	; 0xac4 <main+0x8f8>
 ac2:	41 c0       	rjmp	.+130    	; 0xb46 <main+0x97a>
 ac4:	f0 e0       	ldi	r31, 0x00	; 0
 ac6:	e6 5d       	subi	r30, 0xD6	; 214
 ac8:	fd 4f       	sbci	r31, 0xFD	; 253
 aca:	80 81       	ld	r24, Z
 acc:	1a 82       	std	Y+2, r1	; 0x02
 ace:	8b 83       	std	Y+3, r24	; 0x03
 ad0:	40 e0       	ldi	r20, 0x00	; 0
 ad2:	83 e0       	ldi	r24, 0x03	; 3
 ad4:	90 e0       	ldi	r25, 0x00	; 0
 ad6:	7a cd       	rjmp	.-1292   	; 0x5cc <main+0x400>
 ad8:	ea 80       	ldd	r14, Y+2	; 0x02
 ada:	ff 24       	eor	r15, r15
 adc:	00 e0       	ldi	r16, 0x00	; 0
 ade:	10 e0       	ldi	r17, 0x00	; 0
 ae0:	1e 2d       	mov	r17, r14
 ae2:	00 27       	eor	r16, r16
 ae4:	ff 24       	eor	r15, r15
 ae6:	ee 24       	eor	r14, r14
 ae8:	8b 81       	ldd	r24, Y+3	; 0x03
 aea:	90 e0       	ldi	r25, 0x00	; 0
 aec:	a0 e0       	ldi	r26, 0x00	; 0
 aee:	b0 e0       	ldi	r27, 0x00	; 0
 af0:	dc 01       	movw	r26, r24
 af2:	99 27       	eor	r25, r25
 af4:	88 27       	eor	r24, r24
 af6:	e8 2a       	or	r14, r24
 af8:	f9 2a       	or	r15, r25
 afa:	0a 2b       	or	r16, r26
 afc:	1b 2b       	or	r17, r27
 afe:	8d 81       	ldd	r24, Y+5	; 0x05
 b00:	90 e0       	ldi	r25, 0x00	; 0
 b02:	a0 e0       	ldi	r26, 0x00	; 0
 b04:	b0 e0       	ldi	r27, 0x00	; 0
 b06:	e8 2a       	or	r14, r24
 b08:	f9 2a       	or	r15, r25
 b0a:	0a 2b       	or	r16, r26
 b0c:	1b 2b       	or	r17, r27
 b0e:	8c 81       	ldd	r24, Y+4	; 0x04
 b10:	90 e0       	ldi	r25, 0x00	; 0
 b12:	a0 e0       	ldi	r26, 0x00	; 0
 b14:	b0 e0       	ldi	r27, 0x00	; 0
 b16:	ba 2f       	mov	r27, r26
 b18:	a9 2f       	mov	r26, r25
 b1a:	98 2f       	mov	r25, r24
 b1c:	88 27       	eor	r24, r24
 b1e:	e8 2a       	or	r14, r24
 b20:	f9 2a       	or	r15, r25
 b22:	0a 2b       	or	r16, r26
 b24:	1b 2b       	or	r17, r27
 b26:	ee 0c       	add	r14, r14
 b28:	ff 1c       	adc	r15, r15
 b2a:	00 1f       	adc	r16, r16
 b2c:	11 1f       	adc	r17, r17
 b2e:	1a 82       	std	Y+2, r1	; 0x02
 b30:	40 e0       	ldi	r20, 0x00	; 0
 b32:	82 e0       	ldi	r24, 0x02	; 2
 b34:	90 e0       	ldi	r25, 0x00	; 0
 b36:	4a cd       	rjmp	.-1388   	; 0x5cc <main+0x400>
 b38:	89 e0       	ldi	r24, 0x09	; 9
 b3a:	e2 e0       	ldi	r30, 0x02	; 2
 b3c:	f0 e0       	ldi	r31, 0x00	; 0
 b3e:	80 93 57 00 	sts	0x0057, r24
 b42:	84 91       	lpm	r24, Z+
 b44:	8e ce       	rjmp	.-740    	; 0x862 <main+0x696>
 b46:	80 e0       	ldi	r24, 0x00	; 0
 b48:	c1 cf       	rjmp	.-126    	; 0xacc <main+0x900>
 b4a:	fa 81       	ldd	r31, Y+2	; 0x02
 b4c:	c0 5e       	subi	r28, 0xE0	; 224
 b4e:	de 4f       	sbci	r29, 0xFE	; 254
 b50:	f8 83       	st	Y, r31
 b52:	c0 52       	subi	r28, 0x20	; 32
 b54:	d1 40       	sbci	r29, 0x01	; 1
 b56:	c1 5e       	subi	r28, 0xE1	; 225
 b58:	de 4f       	sbci	r29, 0xFE	; 254
 b5a:	18 82       	st	Y, r1
 b5c:	cf 51       	subi	r28, 0x1F	; 31
 b5e:	d1 40       	sbci	r29, 0x01	; 1
 b60:	2b 81       	ldd	r18, Y+3	; 0x03
 b62:	30 e0       	ldi	r19, 0x00	; 0
 b64:	c1 5e       	subi	r28, 0xE1	; 225
 b66:	de 4f       	sbci	r29, 0xFE	; 254
 b68:	88 81       	ld	r24, Y
 b6a:	99 81       	ldd	r25, Y+1	; 0x01
 b6c:	cf 51       	subi	r28, 0x1F	; 31
 b6e:	d1 40       	sbci	r29, 0x01	; 1
 b70:	28 2b       	or	r18, r24
 b72:	39 2b       	or	r19, r25
 b74:	63 31       	cpi	r22, 0x13	; 19
 b76:	29 f1       	breq	.+74     	; 0xbc2 <main+0x9f6>
 b78:	21 50       	subi	r18, 0x01	; 1
 b7a:	30 40       	sbci	r19, 0x00	; 0
 b7c:	40 e0       	ldi	r20, 0x00	; 0
 b7e:	50 e0       	ldi	r21, 0x00	; 0
 b80:	2f 5f       	subi	r18, 0xFF	; 255
 b82:	3f 4f       	sbci	r19, 0xFF	; 255
 b84:	4f 4f       	sbci	r20, 0xFF	; 255
 b86:	5f 4f       	sbci	r21, 0xFF	; 255
 b88:	2e 0d       	add	r18, r14
 b8a:	3f 1d       	adc	r19, r15
 b8c:	40 1f       	adc	r20, r16
 b8e:	51 1f       	adc	r21, r17
 b90:	fe 01       	movw	r30, r28
 b92:	3b 96       	adiw	r30, 0x0b	; 11
 b94:	e1 bc       	out	0x21, r14	; 33
 b96:	bb 27       	eor	r27, r27
 b98:	a1 2f       	mov	r26, r17
 b9a:	90 2f       	mov	r25, r16
 b9c:	8f 2d       	mov	r24, r15
 b9e:	82 bd       	out	0x22, r24	; 34
 ba0:	08 94       	sec
 ba2:	e1 1c       	adc	r14, r1
 ba4:	f1 1c       	adc	r15, r1
 ba6:	01 1d       	adc	r16, r1
 ba8:	11 1d       	adc	r17, r1
 baa:	81 91       	ld	r24, Z+
 bac:	80 bd       	out	0x20, r24	; 32
 bae:	fa 9a       	sbi	0x1f, 2	; 31
 bb0:	f9 9a       	sbi	0x1f, 1	; 31
 bb2:	f9 99       	sbic	0x1f, 1	; 31
 bb4:	fe cf       	rjmp	.-4      	; 0xbb2 <main+0x9e6>
 bb6:	e2 16       	cp	r14, r18
 bb8:	f3 06       	cpc	r15, r19
 bba:	04 07       	cpc	r16, r20
 bbc:	15 07       	cpc	r17, r21
 bbe:	51 f7       	brne	.-44     	; 0xb94 <main+0x9c8>
 bc0:	b6 cf       	rjmp	.-148    	; 0xb2e <main+0x962>
 bc2:	90 e0       	ldi	r25, 0x00	; 0
 bc4:	a9 16       	cp	r10, r25
 bc6:	90 ec       	ldi	r25, 0xC0	; 192
 bc8:	b9 06       	cpc	r11, r25
 bca:	93 e0       	ldi	r25, 0x03	; 3
 bcc:	c9 06       	cpc	r12, r25
 bce:	90 e0       	ldi	r25, 0x00	; 0
 bd0:	d9 06       	cpc	r13, r25
 bd2:	90 f4       	brcc	.+36     	; 0xbf8 <main+0xa2c>
 bd4:	a3 e0       	ldi	r26, 0x03	; 3
 bd6:	f5 01       	movw	r30, r10
 bd8:	c0 92 5b 00 	sts	0x005B, r12
 bdc:	a0 93 57 00 	sts	0x0057, r26
 be0:	e8 95       	spm
 be2:	07 b6       	in	r0, 0x37	; 55
 be4:	00 fc       	sbrc	r0, 0
 be6:	fd cf       	rjmp	.-6      	; 0xbe2 <main+0xa16>
 be8:	60 e0       	ldi	r22, 0x00	; 0
 bea:	71 e0       	ldi	r23, 0x01	; 1
 bec:	80 e0       	ldi	r24, 0x00	; 0
 bee:	90 e0       	ldi	r25, 0x00	; 0
 bf0:	a6 0e       	add	r10, r22
 bf2:	b7 1e       	adc	r11, r23
 bf4:	c8 1e       	adc	r12, r24
 bf6:	d9 1e       	adc	r13, r25
 bf8:	de 01       	movw	r26, r28
 bfa:	1b 96       	adiw	r26, 0x0b	; 11
 bfc:	b9 01       	movw	r22, r18
 bfe:	9d 01       	movw	r18, r26
 c00:	d8 01       	movw	r26, r16
 c02:	c7 01       	movw	r24, r14
 c04:	f9 01       	movw	r30, r18
 c06:	40 81       	ld	r20, Z
 c08:	51 81       	ldd	r21, Z+1	; 0x01
 c0a:	2e 5f       	subi	r18, 0xFE	; 254
 c0c:	3f 4f       	sbci	r19, 0xFF	; 255
 c0e:	ce 5d       	subi	r28, 0xDE	; 222
 c10:	de 4f       	sbci	r29, 0xFE	; 254
 c12:	58 83       	st	Y, r21
 c14:	c2 52       	subi	r28, 0x22	; 34
 c16:	d1 40       	sbci	r29, 0x01	; 1
 c18:	cf 5d       	subi	r28, 0xDF	; 223
 c1a:	de 4f       	sbci	r29, 0xFE	; 254
 c1c:	18 82       	st	Y, r1
 c1e:	c1 52       	subi	r28, 0x21	; 33
 c20:	d1 40       	sbci	r29, 0x01	; 1
 c22:	50 e0       	ldi	r21, 0x00	; 0
 c24:	cf 5d       	subi	r28, 0xDF	; 223
 c26:	de 4f       	sbci	r29, 0xFE	; 254
 c28:	e8 81       	ld	r30, Y
 c2a:	f9 81       	ldd	r31, Y+1	; 0x01
 c2c:	c1 52       	subi	r28, 0x21	; 33
 c2e:	d1 40       	sbci	r29, 0x01	; 1
 c30:	4e 2b       	or	r20, r30
 c32:	5f 2b       	or	r21, r31
 c34:	99 24       	eor	r9, r9
 c36:	93 94       	inc	r9
 c38:	0a 01       	movw	r0, r20
 c3a:	fc 01       	movw	r30, r24
 c3c:	a0 93 5b 00 	sts	0x005B, r26
 c40:	90 92 57 00 	sts	0x0057, r9
 c44:	e8 95       	spm
 c46:	11 24       	eor	r1, r1
 c48:	02 96       	adiw	r24, 0x02	; 2
 c4a:	a1 1d       	adc	r26, r1
 c4c:	b1 1d       	adc	r27, r1
 c4e:	62 50       	subi	r22, 0x02	; 2
 c50:	70 40       	sbci	r23, 0x00	; 0
 c52:	c1 f6       	brne	.-80     	; 0xc04 <main+0xa38>
 c54:	3c 01       	movw	r6, r24
 c56:	4d 01       	movw	r8, r26
 c58:	25 e0       	ldi	r18, 0x05	; 5
 c5a:	f7 01       	movw	r30, r14
 c5c:	00 93 5b 00 	sts	0x005B, r16
 c60:	20 93 57 00 	sts	0x0057, r18
 c64:	e8 95       	spm
 c66:	85 e1       	ldi	r24, 0x15	; 21
 c68:	0e 94 aa 00 	call	0x154	; 0x154 <send_command>
 c6c:	c8 01       	movw	r24, r16
 c6e:	b7 01       	movw	r22, r14
 c70:	2c e7       	ldi	r18, 0x7C	; 124
 c72:	30 e0       	ldi	r19, 0x00	; 0
 c74:	40 e0       	ldi	r20, 0x00	; 0
 c76:	50 e0       	ldi	r21, 0x00	; 0
 c78:	0e 94 71 06 	call	0xce2	; 0xce2 <__mulsi3>
 c7c:	20 e0       	ldi	r18, 0x00	; 0
 c7e:	30 e8       	ldi	r19, 0x80	; 128
 c80:	47 e0       	ldi	r20, 0x07	; 7
 c82:	50 e0       	ldi	r21, 0x00	; 0
 c84:	0e 94 90 06 	call	0xd20	; 0xd20 <__udivmodsi4>
 c88:	e2 2e       	mov	r14, r18
 c8a:	e3 94       	inc	r14
 c8c:	8e 2d       	mov	r24, r14
 c8e:	0e 94 aa 00 	call	0x154	; 0x154 <send_command>
 c92:	8e 2d       	mov	r24, r14
 c94:	0e 94 aa 00 	call	0x154	; 0x154 <send_command>
 c98:	85 e7       	ldi	r24, 0x75	; 117
 c9a:	0e 94 aa 00 	call	0x154	; 0x154 <send_command>
 c9e:	89 e3       	ldi	r24, 0x39	; 57
 ca0:	0e 94 aa 00 	call	0x154	; 0x154 <send_command>
 ca4:	89 e3       	ldi	r24, 0x39	; 57
 ca6:	0e 94 aa 00 	call	0x154	; 0x154 <send_command>
 caa:	8f ef       	ldi	r24, 0xFF	; 255
 cac:	0e 94 af 00 	call	0x15e	; 0x15e <send_char>
 cb0:	07 b6       	in	r0, 0x37	; 55
 cb2:	00 fc       	sbrc	r0, 0
 cb4:	fd cf       	rjmp	.-6      	; 0xcb0 <main+0xae4>
 cb6:	31 e1       	ldi	r19, 0x11	; 17
 cb8:	30 93 57 00 	sts	0x0057, r19
 cbc:	e8 95       	spm
 cbe:	84 01       	movw	r16, r8
 cc0:	73 01       	movw	r14, r6
 cc2:	35 cf       	rjmp	.-406    	; 0xb2e <main+0x962>
 cc4:	22 e0       	ldi	r18, 0x02	; 2
 cc6:	aa ce       	rjmp	.-684    	; 0xa1c <main+0x850>
 cc8:	24 e0       	ldi	r18, 0x04	; 4
 cca:	a8 ce       	rjmp	.-688    	; 0xa1c <main+0x850>
 ccc:	21 e0       	ldi	r18, 0x01	; 1
 cce:	a6 ce       	rjmp	.-692    	; 0xa1c <main+0x850>
 cd0:	20 e0       	ldi	r18, 0x00	; 0
 cd2:	a4 ce       	rjmp	.-696    	; 0xa1c <main+0x850>
 cd4:	25 e0       	ldi	r18, 0x05	; 5
 cd6:	a2 ce       	rjmp	.-700    	; 0xa1c <main+0x850>
 cd8:	8e e1       	ldi	r24, 0x1E	; 30
 cda:	9d 81       	ldd	r25, Y+5	; 0x05
 cdc:	a5 cd       	rjmp	.-1206   	; 0x828 <main+0x65c>
 cde:	26 e0       	ldi	r18, 0x06	; 6
 ce0:	9d ce       	rjmp	.-710    	; 0xa1c <main+0x850>

00000ce2 <__mulsi3>:
 ce2:	62 9f       	mul	r22, r18
 ce4:	d0 01       	movw	r26, r0
 ce6:	73 9f       	mul	r23, r19
 ce8:	f0 01       	movw	r30, r0
 cea:	82 9f       	mul	r24, r18
 cec:	e0 0d       	add	r30, r0
 cee:	f1 1d       	adc	r31, r1
 cf0:	64 9f       	mul	r22, r20
 cf2:	e0 0d       	add	r30, r0
 cf4:	f1 1d       	adc	r31, r1
 cf6:	92 9f       	mul	r25, r18
 cf8:	f0 0d       	add	r31, r0
 cfa:	83 9f       	mul	r24, r19
 cfc:	f0 0d       	add	r31, r0
 cfe:	74 9f       	mul	r23, r20
 d00:	f0 0d       	add	r31, r0
 d02:	65 9f       	mul	r22, r21
 d04:	f0 0d       	add	r31, r0
 d06:	99 27       	eor	r25, r25
 d08:	72 9f       	mul	r23, r18
 d0a:	b0 0d       	add	r27, r0
 d0c:	e1 1d       	adc	r30, r1
 d0e:	f9 1f       	adc	r31, r25
 d10:	63 9f       	mul	r22, r19
 d12:	b0 0d       	add	r27, r0
 d14:	e1 1d       	adc	r30, r1
 d16:	f9 1f       	adc	r31, r25
 d18:	bd 01       	movw	r22, r26
 d1a:	cf 01       	movw	r24, r30
 d1c:	11 24       	eor	r1, r1
 d1e:	08 95       	ret

00000d20 <__udivmodsi4>:
 d20:	a1 e2       	ldi	r26, 0x21	; 33
 d22:	1a 2e       	mov	r1, r26
 d24:	aa 1b       	sub	r26, r26
 d26:	bb 1b       	sub	r27, r27
 d28:	fd 01       	movw	r30, r26
 d2a:	0d c0       	rjmp	.+26     	; 0xd46 <__udivmodsi4_ep>

00000d2c <__udivmodsi4_loop>:
 d2c:	aa 1f       	adc	r26, r26
 d2e:	bb 1f       	adc	r27, r27
 d30:	ee 1f       	adc	r30, r30
 d32:	ff 1f       	adc	r31, r31
 d34:	a2 17       	cp	r26, r18
 d36:	b3 07       	cpc	r27, r19
 d38:	e4 07       	cpc	r30, r20
 d3a:	f5 07       	cpc	r31, r21
 d3c:	20 f0       	brcs	.+8      	; 0xd46 <__udivmodsi4_ep>
 d3e:	a2 1b       	sub	r26, r18
 d40:	b3 0b       	sbc	r27, r19
 d42:	e4 0b       	sbc	r30, r20
 d44:	f5 0b       	sbc	r31, r21

00000d46 <__udivmodsi4_ep>:
 d46:	66 1f       	adc	r22, r22
 d48:	77 1f       	adc	r23, r23
 d4a:	88 1f       	adc	r24, r24
 d4c:	99 1f       	adc	r25, r25
 d4e:	1a 94       	dec	r1
 d50:	69 f7       	brne	.-38     	; 0xd2c <__udivmodsi4_loop>
 d52:	60 95       	com	r22
 d54:	70 95       	com	r23
 d56:	80 95       	com	r24
 d58:	90 95       	com	r25
 d5a:	9b 01       	movw	r18, r22
 d5c:	ac 01       	movw	r20, r24
 d5e:	bd 01       	movw	r22, r26
 d60:	cf 01       	movw	r24, r30
 d62:	08 95       	ret

00000d64 <_exit>:
 d64:	f8 94       	cli

00000d66 <__stop_program>:
 d66:	ff cf       	rjmp	.-2      	; 0xd66 <__stop_program>
