   1               		.file	"stk500boot.c"
   2               	__SREG__ = 0x3f
   3               	__SP_H__ = 0x3e
   4               	__SP_L__ = 0x3d
   5               	__CCP__ = 0x34
   6               	__tmp_reg__ = 0
   7               	__zero_reg__ = 1
  15               	.Ltext0:
  17               	sendchar:
  18               	.LFB8:
  19               	.LM1:
  20               	.LVL0:
  21               	/* prologue: function */
  22               	/* frame size = 0 */
  23               	/* stack size = 0 */
  24               	.L__stack_usage = 0
  25               	.LM2:
  26 0000 8093 C600 		sts 198,r24
  27               	.LVL1:
  28               	.L2:
  29               	.LM3:
  30 0004 8091 C000 		lds r24,192
  31 0008 86FF      		sbrs r24,6
  32 000a 00C0      		rjmp .L2
  33               	.LM4:
  34 000c 8091 C000 		lds r24,192
  35 0010 8064      		ori r24,lo8(64)
  36 0012 8093 C000 		sts 192,r24
  37               	/* epilogue start */
  38               	.LM5:
  39 0016 0895      		ret
  40               	.LFE8:
  43               	senden_spi:
  44               	.LFB10:
  45               	.LM6:
  46               	.LVL2:
  47               	/* prologue: function */
  48               	/* frame size = 0 */
  49               	/* stack size = 0 */
  50               	.L__stack_usage = 0
  51               	.LM7:
  52 0018 4398      		cbi 40-32,3
  53               	.LM8:
  54 001a 429A      		sbi 40-32,2
  55 001c 28E0      		ldi r18,lo8(8)
  56               	.LM9:
  57 001e 90E8      		ldi r25,lo8(-128)
  58               	.LVL3:
  59               	.L8:
  60               	.LM10:
  61 0020 392F      		mov r19,r25
  62 0022 3823      		and r19,r24
  63 0024 01F0      		breq .L5
  64               	.LM11:
  65 0026 419A      		sbi 40-32,1
  66 0028 00C0      		rjmp .L6
  67               	.L5:
  68               	.LM12:
  69 002a 4198      		cbi 40-32,1
  70               	.L6:
  71               	.LM13:
  72 002c 4298      		cbi 40-32,2
  73               	.LM14:
  74 002e 429A      		sbi 40-32,2
  75               	.LVL4:
  76 0030 2150      		subi r18,lo8(-(-1))
  77               	.LM15:
  78 0032 01F0      		breq .L7
  79               	.LM16:
  80 0034 9695      		lsr r25
  81               	.LVL5:
  82 0036 00C0      		rjmp .L8
  83               	.LVL6:
  84               	.L7:
  85               	.LM17:
  86 0038 439A      		sbi 40-32,3
  87               	/* epilogue start */
  88               	.LM18:
  89 003a 0895      		ret
  90               	.LFE10:
  93               	send_command:
  94               	.LFB11:
  95               	.LM19:
  96               	.LVL7:
  97               	/* prologue: function */
  98               	/* frame size = 0 */
  99               	/* stack size = 0 */
 100               	.L__stack_usage = 0
 101               	.LM20:
 102 003c 4798      		cbi 40-32,7
 103               	.LM21:
 104 003e 0E94 0000 		call senden_spi
 105               	.LVL8:
 106               	.LM22:
 107 0042 479A      		sbi 40-32,7
 108               	/* epilogue start */
 109               	.LM23:
 110 0044 0895      		ret
 111               	.LFE11:
 114               	send_char:
 115               	.LFB12:
 116               	.LM24:
 117               	.LVL9:
 118               	/* prologue: function */
 119               	/* frame size = 0 */
 120               	/* stack size = 0 */
 121               	.L__stack_usage = 0
 122               	.LM25:
 123 0046 479A      		sbi 40-32,7
 124               	.LM26:
 125 0048 0E94 0000 		call senden_spi
 126               	.LVL10:
 127               	/* epilogue start */
 128               	.LM27:
 129 004c 0895      		ret
 130               	.LFE12:
 133               	draw_line.clone.0:
 134               	.LFB19:
 135               	.LM28:
 136               	.LVL11:
 137 004e 1F93      		push r17
 138 0050 CF93      		push r28
 139 0052 DF93      		push r29
 140               	/* prologue: function */
 141               	/* frame size = 0 */
 142               	/* stack size = 3 */
 143               	.L__stack_usage = 3
 144 0054 182F      		mov r17,r24
 145               	.LVL12:
 146               	.LM29:
 147 0056 85E1      		ldi r24,lo8(21)
 148               	.LVL13:
 149 0058 0E94 0000 		call send_command
 150               	.LM30:
 151 005c 80E0      		ldi r24,lo8(0)
 152 005e 0E94 0000 		call send_command
 153               	.LM31:
 154 0062 8FE3      		ldi r24,lo8(63)
 155 0064 0E94 0000 		call send_command
 156               	.LM32:
 157 0068 85E7      		ldi r24,lo8(117)
 158 006a 0E94 0000 		call send_command
 159               	.LM33:
 160 006e 812F      		mov r24,r17
 161 0070 0E94 0000 		call send_command
 162               	.LM34:
 163 0074 812F      		mov r24,r17
 164 0076 0E94 0000 		call send_command
 165               	.LVL14:
 166               	.LM35:
 167 007a C0E0      		ldi r28,lo8(0)
 168 007c D0E0      		ldi r29,hi8(0)
 169               	.LVL15:
 170               	.L12:
 171               	.LM36:
 172 007e 8FEF      		ldi r24,lo8(-1)
 173 0080 0E94 0000 		call send_char
 174               	.LM37:
 175 0084 2196      		adiw r28,1
 176               	.LVL16:
 177 0086 C034      		cpi r28,64
 178 0088 D105      		cpc r29,__zero_reg__
 179 008a 01F4      		brne .L12
 180               	/* epilogue start */
 181               	.LM38:
 182 008c DF91      		pop r29
 183 008e CF91      		pop r28
 184               	.LVL17:
 185 0090 1F91      		pop r17
 186               	.LVL18:
 187 0092 0895      		ret
 188               	.LFE19:
 190               		.section	.init9,"ax",@progbits
 191               	.global	__jumpMain
 193               	__jumpMain:
 194               	.LFB6:
 195               	.LSM0:
 196               	/* prologue: naked */
 197               	/* frame size = 0 */
 198               	/* stack size = 0 */
 199               	.L__stack_usage = 0
 200               	.LSM1:
 201               	/* #APP */
 202               	 ;  224 "stk500boot.c" 1
 203               		.set __stack, 8703
 204               	 ;  0 "" 2
 205               	.LSM2:
 206               	 ;  226 "stk500boot.c" 1
 207 0000 01E2      		ldi	16, 33
 208               	 ;  0 "" 2
 209               	.LSM3:
 210               	 ;  227 "stk500boot.c" 1
 211 0002 0EBF      		out 62,16
 212               	 ;  0 "" 2
 213               	.LSM4:
 214               	 ;  228 "stk500boot.c" 1
 215 0004 0FEF      		ldi	16, 255
 216               	 ;  0 "" 2
 217               	.LSM5:
 218               	 ;  229 "stk500boot.c" 1
 219 0006 0DBF      		out 61,16
 220               	 ;  0 "" 2
 221               	.LSM6:
 222               	 ;  230 "stk500boot.c" 1
 223 0008 1124      		clr __zero_reg__
 224               	 ;  0 "" 2
 225               	.LSM7:
 226               	 ;  231 "stk500boot.c" 1
 227 000a 1FBE      		out 63, __zero_reg__
 228               	 ;  0 "" 2
 229               	.LSM8:
 230               	 ;  232 "stk500boot.c" 1
 231 000c 0C94 0000 		jmp main
 232               	 ;  0 "" 2
 233               	/* epilogue start */
 234               	.LSM9:
 235               	/* #NOAPP */
 236               	.LFE6:
 238               		.text
 239               	.global	delay_ms
 241               	delay_ms:
 242               	.LFB7:
 243               	.LM39:
 244               	.LVL19:
 245               	/* prologue: function */
 246               	/* frame size = 0 */
 247               	/* stack size = 0 */
 248               	.L__stack_usage = 0
 249               	.LM40:
 250 0094 20E0      		ldi r18,lo8(0)
 251 0096 30E0      		ldi r19,hi8(0)
 252 0098 00C0      		rjmp .L16
 253               	.LVL20:
 254               	.L17:
 255               	.LBB33:
 256               	.LBB34:
 257               	.LM41:
 258 009a EFEC      		 ldi r30,lo8(1999)
 259 009c F7E0      	    ldi r31,hi8(1999)
 260 009e 3197      	    1:sbiw r30,1
 261 00a0 01F4      	    brne 1b
 262 00a2 00C0      		rjmp .
 263 00a4 0000      		nop
 264               	.LBE34:
 265               	.LBE33:
 266               	.LM42:
 267 00a6 2F5F      		subi r18,lo8(-(1))
 268 00a8 3F4F      		sbci r19,hi8(-(1))
 269               	.LVL21:
 270               	.L16:
 271               	.LM43:
 272 00aa 2817      		cp r18,r24
 273 00ac 3907      		cpc r19,r25
 274 00ae 00F0      		brlo .L17
 275               	/* epilogue start */
 276               	.LM44:
 277 00b0 0895      		ret
 278               	.LFE7:
 280               	.global	main
 282               	main:
 283               	.LFB18:
 284               	.LM45:
 285 00b2 2F92      		push r2
 286 00b4 3F92      		push r3
 287 00b6 4F92      		push r4
 288 00b8 5F92      		push r5
 289 00ba 6F92      		push r6
 290 00bc 7F92      		push r7
 291 00be 8F92      		push r8
 292 00c0 9F92      		push r9
 293 00c2 AF92      		push r10
 294 00c4 BF92      		push r11
 295 00c6 CF92      		push r12
 296 00c8 DF92      		push r13
 297 00ca EF92      		push r14
 298 00cc FF92      		push r15
 299 00ce 0F93      		push r16
 300 00d0 1F93      		push r17
 301 00d2 DF93      		push r29
 302 00d4 CF93      		push r28
 303 00d6 CDB7      		in r28,__SP_L__
 304 00d8 DEB7      		in r29,__SP_H__
 305 00da C752      		subi r28,lo8(-(-295))
 306 00dc D140      		sbci r29,hi8(-(-295))
 307 00de 0FB6      		in __tmp_reg__,__SREG__
 308 00e0 F894      		cli
 309 00e2 DEBF      		out __SP_H__,r29
 310 00e4 0FBE      		out __SREG__,__tmp_reg__
 311 00e6 CDBF      		out __SP_L__,r28
 312               	/* prologue: function */
 313               	/* frame size = 295 */
 314               	/* stack size = 313 */
 315               	.L__stack_usage = 313
 316               	.LVL22:
 317               	.LM46:
 318 00e8 8091 0101 		lds r24,257
 319 00ec 877F      		andi r24,lo8(-9)
 320 00ee 8093 0101 		sts 257,r24
 321               	.LM47:
 322 00f2 88E0      		ldi r24,lo8(8)
 323 00f4 8093 0201 		sts 258,r24
 324               	.LVL23:
 325               	.LM48:
 326 00f8 8091 C000 		lds r24,192
 327 00fc 8260      		ori r24,lo8(2)
 328 00fe 8093 C000 		sts 192,r24
 329               	.LM49:
 330 0102 80E1      		ldi r24,lo8(16)
 331 0104 8093 C400 		sts 196,r24
 332               	.LM50:
 333 0108 88E1      		ldi r24,lo8(24)
 334 010a 8093 C100 		sts 193,r24
 335               	.LM51:
 336               	/* #APP */
 337               	 ;  510 "stk500boot.c" 1
 338 010e 0000      		nop
 339               	 ;  0 "" 2
 340               	/* #NOAPP */
 341               	.LBB68:
 342               	.LBB69:
 343               	.LM52:
 344 0110 8EEA      		ldi r24,lo8(-82)
 345 0112 87B9      		out 39-32,r24
 346               	.LVL24:
 347               	.LBB70:
 348               	.LBB71:
 349               	.LM53:
 350 0114 8FE9      		 ldi r24,lo8(3999)
 351 0116 9FE0      	    ldi r25,hi8(3999)
 352 0118 0197      	    1:sbiw r24,1
 353 011a 01F4      	    brne 1b
 354 011c 00C0      		rjmp .
 355 011e 0000      		nop
 356               	.LBE71:
 357               	.LBE70:
 358               	.LM54:
 359 0120 439A      		sbi 40-32,3
 360               	.LM55:
 361 0122 4798      		cbi 40-32,7
 362               	.LM56:
 363 0124 4198      		cbi 40-32,1
 364               	.LM57:
 365 0126 4298      		cbi 40-32,2
 366               	.LM58:
 367 0128 4598      		cbi 40-32,5
 368               	.LVL25:
 369               	.LBB72:
 370               	.LBB73:
 371               	.LM59:
 372 012a EFE9      		 ldi r30,lo8(3999)
 373 012c FFE0      	    ldi r31,hi8(3999)
 374 012e 3197      	    1:sbiw r30,1
 375 0130 01F4      	    brne 1b
 376 0132 00C0      		rjmp .
 377 0134 0000      		nop
 378               	.LBE73:
 379               	.LBE72:
 380               	.LM60:
 381 0136 459A      		sbi 40-32,5
 382               	.LM61:
 383 0138 85E1      		ldi r24,lo8(21)
 384 013a 0E94 0000 		call send_command
 385 013e 80E0      		ldi r24,lo8(0)
 386 0140 0E94 0000 		call send_command
 387 0144 8FE3      		ldi r24,lo8(63)
 388 0146 0E94 0000 		call send_command
 389               	.LM62:
 390 014a 85E7      		ldi r24,lo8(117)
 391 014c 0E94 0000 		call send_command
 392 0150 80E0      		ldi r24,lo8(0)
 393 0152 0E94 0000 		call send_command
 394 0156 8FE3      		ldi r24,lo8(63)
 395 0158 0E94 0000 		call send_command
 396               	.LM63:
 397 015c 81E8      		ldi r24,lo8(-127)
 398 015e 0E94 0000 		call send_command
 399 0162 86E6      		ldi r24,lo8(102)
 400 0164 0E94 0000 		call send_command
 401               	.LM64:
 402 0168 86E8      		ldi r24,lo8(-122)
 403 016a 0E94 0000 		call send_command
 404               	.LM65:
 405 016e 80EA      		ldi r24,lo8(-96)
 406 0170 0E94 0000 		call send_command
 407 0174 82E5      		ldi r24,lo8(82)
 408 0176 0E94 0000 		call send_command
 409               	.LM66:
 410 017a 81EA      		ldi r24,lo8(-95)
 411 017c 0E94 0000 		call send_command
 412 0180 80E0      		ldi r24,lo8(0)
 413 0182 0E94 0000 		call send_command
 414               	.LM67:
 415 0186 82EA      		ldi r24,lo8(-94)
 416 0188 0E94 0000 		call send_command
 417 018c 8CE4      		ldi r24,lo8(76)
 418 018e 0E94 0000 		call send_command
 419               	.LM68:
 420 0192 84EA      		ldi r24,lo8(-92)
 421 0194 0E94 0000 		call send_command
 422               	.LM69:
 423 0198 88EA      		ldi r24,lo8(-88)
 424 019a 0E94 0000 		call send_command
 425 019e 8FE3      		ldi r24,lo8(63)
 426 01a0 0E94 0000 		call send_command
 427               	.LM70:
 428 01a4 81EB      		ldi r24,lo8(-79)
 429 01a6 0E94 0000 		call send_command
 430 01aa 88EA      		ldi r24,lo8(-88)
 431 01ac 0E94 0000 		call send_command
 432               	.LM71:
 433 01b0 82EB      		ldi r24,lo8(-78)
 434 01b2 0E94 0000 		call send_command
 435 01b6 86E4      		ldi r24,lo8(70)
 436 01b8 0E94 0000 		call send_command
 437               	.LM72:
 438 01bc 83EB      		ldi r24,lo8(-77)
 439 01be 0E94 0000 		call send_command
 440 01c2 81EF      		ldi r24,lo8(-15)
 441 01c4 0E94 0000 		call send_command
 442               	.LM73:
 443 01c8 8FEB      		ldi r24,lo8(-65)
 444 01ca 0E94 0000 		call send_command
 445 01ce 8DE0      		ldi r24,lo8(13)
 446 01d0 0E94 0000 		call send_command
 447               	.LM74:
 448 01d4 8EEB      		ldi r24,lo8(-66)
 449 01d6 0E94 0000 		call send_command
 450 01da 82E0      		ldi r24,lo8(2)
 451 01dc 0E94 0000 		call send_command
 452 01e0 8CEB      		ldi r24,lo8(-68)
 453 01e2 0E94 0000 		call send_command
 454 01e6 88E3      		ldi r24,lo8(56)
 455 01e8 0E94 0000 		call send_command
 456               	.LM75:
 457 01ec 88EB      		ldi r24,lo8(-72)
 458 01ee 0E94 0000 		call send_command
 459 01f2 81E0      		ldi r24,lo8(1)
 460 01f4 0E94 0000 		call send_command
 461 01f8 81E1      		ldi r24,lo8(17)
 462 01fa 0E94 0000 		call send_command
 463 01fe 82E2      		ldi r24,lo8(34)
 464 0200 0E94 0000 		call send_command
 465 0204 82E3      		ldi r24,lo8(50)
 466 0206 0E94 0000 		call send_command
 467               	.LM76:
 468 020a 83E4      		ldi r24,lo8(67)
 469 020c 0E94 0000 		call send_command
 470 0210 84E5      		ldi r24,lo8(84)
 471 0212 0E94 0000 		call send_command
 472 0216 85E6      		ldi r24,lo8(101)
 473 0218 0E94 0000 		call send_command
 474 021c 86E7      		ldi r24,lo8(118)
 475 021e 0E94 0000 		call send_command
 476               	.LM77:
 477 0222 8DEA      		ldi r24,lo8(-83)
 478 0224 0E94 0000 		call send_command
 479               	.LM78:
 480 0228 82E0      		ldi r24,lo8(2)
 481 022a 0E94 0000 		call send_command
 482               	.LM79:
 483 022e 8FEA      		ldi r24,lo8(-81)
 484 0230 0E94 0000 		call send_command
 485               	.LBE69:
 486               	.LBE68:
 487               	.LBB74:
 488               	.LBB75:
 489               	.LM80:
 490 0234 85E1      		ldi r24,lo8(21)
 491 0236 0E94 0000 		call send_command
 492               	.LM81:
 493 023a 80E0      		ldi r24,lo8(0)
 494 023c 0E94 0000 		call send_command
 495               	.LM82:
 496 0240 8FE7      		ldi r24,lo8(127)
 497 0242 0E94 0000 		call send_command
 498               	.LM83:
 499 0246 85E7      		ldi r24,lo8(117)
 500 0248 0E94 0000 		call send_command
 501               	.LM84:
 502 024c 80E0      		ldi r24,lo8(0)
 503 024e 0E94 0000 		call send_command
 504               	.LM85:
 505 0252 8FE3      		ldi r24,lo8(63)
 506 0254 0E94 0000 		call send_command
 507               	.LVL26:
 508 0258 00E0      		ldi r16,lo8(4096)
 509 025a 10E1      		ldi r17,hi8(4096)
 510               	.LVL27:
 511               	.L19:
 512               	.LM86:
 513 025c 80E0      		ldi r24,lo8(0)
 514 025e 0E94 0000 		call send_char
 515 0262 0150      		subi r16,lo8(-(-1))
 516 0264 1040      		sbci r17,hi8(-(-1))
 517               	.LM87:
 518 0266 01F4      		brne .L19
 519               	.LVL28:
 520               	.LBE75:
 521               	.LBE74:
 522               	.LM88:
 523 0268 81E0      		ldi r24,lo8(1)
 524 026a 8983      		std Y+1,r24
 525               	.LM89:
 526 026c 1A82      		std Y+2,__zero_reg__
 527               	.LM90:
 528 026e 88E0      		ldi r24,lo8(8)
 529 0270 8B83      		std Y+3,r24
 530               	.LM91:
 531 0272 81E4      		ldi r24,lo8(65)
 532 0274 8C83      		std Y+4,r24
 533               	.LM92:
 534 0276 86E5      		ldi r24,lo8(86)
 535 0278 8D83      		std Y+5,r24
 536               	.LM93:
 537 027a 82E5      		ldi r24,lo8(82)
 538 027c 8E83      		std Y+6,r24
 539               	.LM94:
 540 027e 89E4      		ldi r24,lo8(73)
 541 0280 8F83      		std Y+7,r24
 542               	.LM95:
 543 0282 83E5      		ldi r24,lo8(83)
 544 0284 8887      		std Y+8,r24
 545               	.LM96:
 546 0286 80E5      		ldi r24,lo8(80)
 547 0288 8987      		std Y+9,r24
 548               	.LM97:
 549 028a 8FE5      		ldi r24,lo8(95)
 550 028c 8A87      		std Y+10,r24
 551               	.LM98:
 552 028e 82E3      		ldi r24,lo8(50)
 553 0290 8B87      		std Y+11,r24
 554               	.LM99:
 555 0292 8BE1      		ldi r24,lo8(27)
 556 0294 0E94 0000 		call sendchar
 557               	.LVL29:
 558               	.LM100:
 559 0298 81E0      		ldi r24,lo8(1)
 560 029a 0E94 0000 		call sendchar
 561               	.LVL30:
 562               	.LM101:
 563 029e 80E0      		ldi r24,lo8(0)
 564 02a0 0E94 0000 		call sendchar
 565               	.LVL31:
 566               	.LM102:
 567 02a4 8BE0      		ldi r24,lo8(11)
 568 02a6 0E94 0000 		call sendchar
 569               	.LVL32:
 570               	.LM103:
 571 02aa 8EE0      		ldi r24,lo8(14)
 572 02ac 0E94 0000 		call sendchar
 573               	.LVL33:
 574               	.LM104:
 575 02b0 8E01      		movw r16,r28
 576 02b2 045F      		subi r16,lo8(-(12))
 577 02b4 1F4F      		sbci r17,hi8(-(12))
 578               	.LBB77:
 579               	.LBB76:
 580               	.LM105:
 581 02b6 7E01      		movw r14,r28
 582 02b8 0894      		sec
 583 02ba E11C      		adc r14,__zero_reg__
 584 02bc F11C      		adc r15,__zero_reg__
 585               	.LM106:
 586 02be 5FE1      		ldi r21,lo8(31)
 587 02c0 852E      		mov r8,r21
 588               	.LVL34:
 589               	.L20:
 590               	.LBE76:
 591               	.LBE77:
 592               	.LM107:
 593 02c2 F701      		movw r30,r14
 594 02c4 D190      		ld r13,Z+
 595 02c6 7F01      		movw r14,r30
 596               	.LVL35:
 597               	.LM108:
 598 02c8 8D2D      		mov r24,r13
 599 02ca 0E94 0000 		call sendchar
 600               	.LVL36:
 601               	.LM109:
 602 02ce 8D24      		eor r8,r13
 603               	.LVL37:
 604               	.LM110:
 605 02d0 E016      		cp r14,r16
 606 02d2 F106      		cpc r15,r17
 607 02d4 01F4      		brne .L20
 608               	.LM111:
 609 02d6 882D      		mov r24,r8
 610 02d8 0E94 0000 		call sendchar
 611               	.LVL38:
 612               	.LM112:
 613 02dc 80E0      		ldi r24,lo8(0)
 614 02de 90E0      		ldi r25,hi8(0)
 615 02e0 DC01      		movw r26,r24
 616 02e2 00C0      		rjmp .L139
 617               	.LVL39:
 618               	.L25:
 619               	.LBB78:
 620               	.LBB79:
 621               	.LM113:
 622 02e4 F5E0      		 ldi r31,lo8(5)
 623 02e6 FA95      	    1:dec r31
 624 02e8 01F4      	    brne 1b
 625 02ea 0000      		nop
 626               	.LBE79:
 627               	.LBE78:
 628               	.LM114:
 629 02ec 2091 0001 		lds r18,256
 630               	.LVL40:
 631 02f0 23FF      		sbrs r18,3
 632 02f2 00C0      		rjmp .L22
 633               	.LM115:
 634 02f4 0196      		adiw r24,1
 635 02f6 A11D      		adc r26,__zero_reg__
 636 02f8 B11D      		adc r27,__zero_reg__
 637               	.LVL41:
 638               	.L22:
 639               	.LM116:
 640 02fa 21E0      		ldi r18,lo8(1)
 641 02fc 30E0      		ldi r19,hi8(1)
 642 02fe 8139      		cpi r24,lo8(250001)
 643 0300 40ED      		ldi r20,hi8(250001)
 644 0302 9407      		cpc r25,r20
 645 0304 43E0      		ldi r20,hlo8(250001)
 646 0306 A407      		cpc r26,r20
 647 0308 40E0      		ldi r20,hhi8(250001)
 648 030a B407      		cpc r27,r20
 649 030c 00F4      		brsh .L135
 650               	.LVL42:
 651               	.L139:
 652 030e 20E0      		ldi r18,lo8(0)
 653 0310 30E0      		ldi r19,hi8(0)
 654               	.L135:
 655               	.LVL43:
 656               	.LBB80:
 657               	.LBB81:
 658               	.LM117:
 659 0312 4091 C000 		lds r20,192
 660               	.LBE81:
 661               	.LBE80:
 662               	.LM118:
 663 0316 47FD      		sbrc r20,7
 664 0318 00C0      		rjmp .L24
 665               	.LM119:
 666 031a 2115      		cp r18,__zero_reg__
 667 031c 3105      		cpc r19,__zero_reg__
 668 031e 01F0      		breq .L25
 669               	.L24:
 670               	.LVL44:
 671               	.LM120:
 672 0320 2F5F      		subi r18,lo8(-(1))
 673 0322 3F4F      		sbci r19,hi8(-(1))
 674               	.LVL45:
 675               	.LM121:
 676 0324 2130      		cpi r18,1
 677 0326 3105      		cpc r19,__zero_reg__
 678 0328 01F0      		breq .+2
 679 032a 00C0      		rjmp .L28
 680               	.LM122:
 681 032c 4424      		clr r4
 682 032e 5524      		clr r5
 683 0330 3201      		movw r6,r4
 684 0332 EE24      		clr r14
 685 0334 FF24      		clr r15
 686 0336 8701      		movw r16,r14
 687               	.LVL46:
 688 0338 42E0      		ldi r20,lo8(2)
 689 033a 942E      		mov r9,r20
 690 033c 2224      		clr r2
 691 033e 3324      		clr r3
 692               	.LBB82:
 693               	.LBB83:
 694               	.LBB84:
 695               	.LBB85:
 696               	.LM123:
 697               	/* #APP */
 698               	 ;  446 "stk500boot.c" 1
 699 0340 6BBE      		out 59, r6
 700 0342 F201      		movw r30, r4
 701 0344 8791      		elpm r24, Z+
 702 0346 9691      		elpm r25, Z
 703               		
 704               	 ;  0 "" 2
 705               	/* #NOAPP */
 706 0348 CC5D      		subi r28,lo8(-292)
 707 034a DE4F      		sbci r29,hi8(-292)
 708 034c 9983      		std Y+1,r25
 709 034e 8883      		st Y,r24
 710 0350 C452      		subi r28,lo8(292)
 711 0352 D140      		sbci r29,hi8(292)
 712 0354 00C0      		rjmp .L29
 713               	.LVL47:
 714               	.L47:
 715               	.LBE85:
 716               	.LBE84:
 717               	.LBE83:
 718               	.LBE82:
 719               	.LM124:
 720 0356 20E0      		ldi r18,lo8(0)
 721 0358 30E0      		ldi r19,hi8(0)
 722               	.LVL48:
 723               	.L98:
 724               	.LM125:
 725 035a 2130      		cpi r18,1
 726 035c 3105      		cpc r19,__zero_reg__
 727 035e 01F4      		brne .L100
 728 0360 00C0      		rjmp .L140
 729               	.LVL49:
 730               	.L34:
 731               	.LBB88:
 732               	.LBB87:
 733               	.LM126:
 734 0362 2F5F      		subi r18,lo8(-(1))
 735 0364 3F4F      		sbci r19,hi8(-(1))
 736 0366 4F4F      		sbci r20,hlo8(-(1))
 737 0368 5F4F      		sbci r21,hhi8(-(1))
 738               	.LVL50:
 739               	.LM127:
 740 036a 2130      		cpi r18,lo8(8000001)
 741 036c 92E1      		ldi r25,hi8(8000001)
 742 036e 3907      		cpc r19,r25
 743 0370 9AE7      		ldi r25,hlo8(8000001)
 744 0372 4907      		cpc r20,r25
 745 0374 90E0      		ldi r25,hhi8(8000001)
 746 0376 5907      		cpc r21,r25
 747 0378 00F0      		brlo .L136
 748               	.LVL51:
 749               	.LBB86:
 750               	.LM128:
 751 037a CC5D      		subi r28,lo8(-292)
 752 037c DE4F      		sbci r29,hi8(-292)
 753 037e E881      		ld r30,Y
 754 0380 F981      		ldd r31,Y+1
 755 0382 C452      		subi r28,lo8(292)
 756 0384 D140      		sbci r29,hi8(292)
 757 0386 2FEF      		ldi r18,hi8(-1)
 758 0388 EF3F      		cpi r30,lo8(-1)
 759 038a F207      		cpc r31,r18
 760               	.LVL52:
 761 038c 01F0      		breq .L100
 762               	.LM129:
 763               	/* #APP */
 764               	 ;  452 "stk500boot.c" 1
 765 038e EE27      		clr	r30		
 766 0390 FF27      		clr	r31		
 767 0392 0994      		ijmp	
 768               		
 769               	 ;  0 "" 2
 770               	.LVL53:
 771               	/* #NOAPP */
 772               	.L100:
 773               	.LM130:
 774 0394 20E0      		ldi r18,lo8(0)
 775 0396 30E0      		ldi r19,hi8(0)
 776 0398 A901      		movw r20,r18
 777               	.L136:
 778               	.LVL54:
 779               	.LBE86:
 780               	.LM131:
 781 039a 9091 C000 		lds r25,192
 782 039e 97FF      		sbrs r25,7
 783 03a0 00C0      		rjmp .L34
 784               	.LVL55:
 785               	.L140:
 786               	.LM132:
 787 03a2 2091 C600 		lds r18,198
 788               	.LVL56:
 789               	.LBE87:
 790               	.LBE88:
 791               	.LM133:
 792 03a6 8330      		cpi r24,lo8(3)
 793 03a8 01F0      		breq .L39
 794 03aa 8430      		cpi r24,lo8(4)
 795 03ac 00F4      		brsh .L43
 796 03ae 8130      		cpi r24,lo8(1)
 797 03b0 01F0      		breq .L37
 798 03b2 8230      		cpi r24,lo8(2)
 799 03b4 00F4      		brsh .L38
 800 03b6 00C0      		rjmp .L149
 801               	.L43:
 802 03b8 8530      		cpi r24,lo8(5)
 803 03ba 01F0      		breq .L41
 804 03bc 8530      		cpi r24,lo8(5)
 805 03be 00F0      		brlo .L40
 806 03c0 8630      		cpi r24,lo8(6)
 807 03c2 01F4      		brne .L138
 808 03c4 00C0      		rjmp .L150
 809               	.L149:
 810               	.LM134:
 811 03c6 2B31      		cpi r18,lo8(27)
 812 03c8 01F4      		brne .L47
 813 03ca 00C0      		rjmp .L151
 814               	.L37:
 815               	.LM135:
 816 03cc 2130      		cpi r18,lo8(1)
 817 03ce 01F0      		breq .L45
 818               	.LM136:
 819 03d0 2915      		cp r18,r9
 820 03d2 01F0      		breq .+2
 821 03d4 00C0      		rjmp .L103
 822               	.L45:
 823               	.LVL57:
 824               	.LM137:
 825 03d6 8226      		eor r8,r18
 826               	.LVL58:
 827 03d8 922E      		mov r9,r18
 828               	.LM138:
 829 03da 82E0      		ldi r24,lo8(2)
 830               	.LM139:
 831 03dc 00C0      		rjmp .L47
 832               	.LVL59:
 833               	.L38:
 834               	.LM140:
 835 03de 722F      		mov r23,r18
 836 03e0 60E0      		ldi r22,lo8(0)
 837               	.LVL60:
 838               	.LM141:
 839 03e2 8226      		eor r8,r18
 840               	.LVL61:
 841               	.LM142:
 842 03e4 83E0      		ldi r24,lo8(3)
 843               	.LM143:
 844 03e6 00C0      		rjmp .L47
 845               	.LVL62:
 846               	.L39:
 847               	.LM144:
 848 03e8 822F      		mov r24,r18
 849 03ea 90E0      		ldi r25,lo8(0)
 850 03ec 682B      		or r22,r24
 851 03ee 792B      		or r23,r25
 852               	.LVL63:
 853               	.LM145:
 854 03f0 8226      		eor r8,r18
 855               	.LVL64:
 856               	.LM146:
 857 03f2 84E0      		ldi r24,lo8(4)
 858               	.LM147:
 859 03f4 00C0      		rjmp .L47
 860               	.LVL65:
 861               	.L40:
 862               	.LM148:
 863 03f6 2E30      		cpi r18,lo8(14)
 864 03f8 01F0      		breq .+2
 865 03fa 00C0      		rjmp .L103
 866               	.LVL66:
 867               	.LM149:
 868 03fc 8226      		eor r8,r18
 869               	.LVL67:
 870               	.LM150:
 871 03fe 2224      		clr r2
 872 0400 3324      		clr r3
 873               	.LM151:
 874 0402 85E0      		ldi r24,lo8(5)
 875 0404 00C0      		rjmp .L47
 876               	.LVL68:
 877               	.L41:
 878               	.LM152:
 879 0406 E1E0      		ldi r30,lo8(1)
 880 0408 F0E0      		ldi r31,hi8(1)
 881 040a EC0F      		add r30,r28
 882 040c FD1F      		adc r31,r29
 883 040e E20D      		add r30,r2
 884 0410 F31D      		adc r31,r3
 885 0412 2083      		st Z,r18
 886 0414 0894      		sec
 887 0416 211C      		adc r2,__zero_reg__
 888 0418 311C      		adc r3,__zero_reg__
 889               	.LVL69:
 890               	.LM153:
 891 041a 8226      		eor r8,r18
 892               	.LVL70:
 893               	.LM154:
 894 041c 2616      		cp r2,r22
 895 041e 3706      		cpc r3,r23
 896 0420 01F0      		breq .+2
 897 0422 00C0      		rjmp .L47
 898 0424 00C0      		rjmp .L152
 899               	.LVL71:
 900               	.L150:
 901               	.LM155:
 902 0426 2815      		cp r18,r8
 903 0428 01F0      		breq .+2
 904 042a 00C0      		rjmp .L103
 905 042c 00C0      		rjmp .L46
 906               	.L138:
 907               	.LVL72:
 908               	.LM156:
 909 042e 8730      		cpi r24,lo8(7)
 910 0430 01F0      		breq .+2
 911 0432 00C0      		rjmp .L47
 912               	.LVL73:
 913               	.L46:
 914               	.LM157:
 915 0434 4981      		ldd r20,Y+1
 916 0436 4331      		cpi r20,lo8(19)
 917 0438 01F4      		brne .+2
 918 043a 00C0      		rjmp .L55
 919 043c 4431      		cpi r20,lo8(20)
 920 043e 00F4      		brsh .L62
 921 0440 4630      		cpi r20,lo8(6)
 922 0442 01F4      		brne .+2
 923 0444 00C0      		rjmp .L52
 924 0446 4730      		cpi r20,lo8(7)
 925 0448 00F4      		brsh .L63
 926 044a 4230      		cpi r20,lo8(2)
 927 044c 01F4      		brne .+2
 928 044e 00C0      		rjmp .L89
 929 0450 4330      		cpi r20,lo8(3)
 930 0452 01F4      		brne .+2
 931 0454 00C0      		rjmp .L51
 932 0456 4130      		cpi r20,lo8(1)
 933 0458 01F0      		breq .+2
 934 045a 00C0      		rjmp .L48
 935 045c 00C0      		rjmp .L153
 936               	.L63:
 937 045e 4131      		cpi r20,lo8(17)
 938 0460 01F4      		brne .+2
 939 0462 00C0      		rjmp .L53
 940 0464 4231      		cpi r20,lo8(18)
 941 0466 00F0      		brlo .+2
 942 0468 00C0      		rjmp .L54
 943 046a 4031      		cpi r20,lo8(16)
 944 046c 01F0      		breq .+2
 945 046e 00C0      		rjmp .L48
 946 0470 00C0      		rjmp .L89
 947               	.L62:
 948 0472 4831      		cpi r20,lo8(24)
 949 0474 01F4      		brne .+2
 950 0476 00C0      		rjmp .L57
 951 0478 4931      		cpi r20,lo8(25)
 952 047a 00F4      		brsh .L64
 953 047c 4531      		cpi r20,lo8(21)
 954 047e 01F4      		brne .+2
 955 0480 00C0      		rjmp .L55
 956 0482 4531      		cpi r20,lo8(21)
 957 0484 00F4      		brsh .+2
 958 0486 00C0      		rjmp .L56
 959 0488 4631      		cpi r20,lo8(22)
 960 048a 01F0      		breq .+2
 961 048c 00C0      		rjmp .L48
 962 048e 00C0      		rjmp .L56
 963               	.L64:
 964 0490 4A31      		cpi r20,lo8(26)
 965 0492 01F4      		brne .+2
 966 0494 00C0      		rjmp .L59
 967 0496 4A31      		cpi r20,lo8(26)
 968 0498 00F4      		brsh .+2
 969 049a 00C0      		rjmp .L58
 970 049c 4B31      		cpi r20,lo8(27)
 971 049e 01F4      		brne .+2
 972 04a0 00C0      		rjmp .L60
 973 04a2 4D31      		cpi r20,lo8(29)
 974 04a4 01F0      		breq .+2
 975 04a6 00C0      		rjmp .L48
 976               	.LVL74:
 977               	.LBB89:
 978               	.LM158:
 979 04a8 8D81      		ldd r24,Y+5
 980 04aa 8033      		cpi r24,lo8(48)
 981 04ac 01F0      		breq .+2
 982 04ae 00C0      		rjmp .L105
 983               	.LBB90:
 984               	.LM159:
 985 04b0 8F81      		ldd r24,Y+7
 986               	.LVL75:
 987               	.LM160:
 988 04b2 8823      		tst r24
 989 04b4 01F0      		breq .+2
 990 04b6 00C0      		rjmp .L66
 991               	.LM161:
 992 04b8 87E3      		ldi r24,lo8(55)
 993 04ba 0E94 0000 		call draw_line.clone.0
 994               	.LVL76:
 995               	.LM162:
 996 04be 8BE3      		ldi r24,lo8(59)
 997 04c0 0E94 0000 		call draw_line.clone.0
 998               	.LM163:
 999 04c4 85E1      		ldi r24,lo8(21)
 1000 04c6 0E94 0000 		call send_command
 1001               	.LM164:
 1002 04ca 80E0      		ldi r24,lo8(0)
 1003 04cc 0E94 0000 		call send_command
 1004               	.LM165:
 1005 04d0 80E0      		ldi r24,lo8(0)
 1006 04d2 0E94 0000 		call send_command
 1007               	.LM166:
 1008 04d6 85E7      		ldi r24,lo8(117)
 1009 04d8 0E94 0000 		call send_command
 1010               	.LM167:
 1011 04dc 88E3      		ldi r24,lo8(56)
 1012 04de 0E94 0000 		call send_command
 1013               	.LM168:
 1014 04e2 8AE3      		ldi r24,lo8(58)
 1015 04e4 0E94 0000 		call send_command
 1016               	.LM169:
 1017 04e8 80EF      		ldi r24,lo8(-16)
 1018 04ea 0E94 0000 		call send_char
 1019               	.LM170:
 1020 04ee 80EF      		ldi r24,lo8(-16)
 1021 04f0 0E94 0000 		call send_char
 1022               	.LM171:
 1023 04f4 80EF      		ldi r24,lo8(-16)
 1024 04f6 0E94 0000 		call send_char
 1025               	.LM172:
 1026 04fa 85E1      		ldi r24,lo8(21)
 1027 04fc 0E94 0000 		call send_command
 1028               	.LM173:
 1029 0500 8FE3      		ldi r24,lo8(63)
 1030 0502 0E94 0000 		call send_command
 1031               	.LM174:
 1032 0506 80E4      		ldi r24,lo8(64)
 1033 0508 0E94 0000 		call send_command
 1034               	.LM175:
 1035 050c 85E7      		ldi r24,lo8(117)
 1036 050e 0E94 0000 		call send_command
 1037               	.LM176:
 1038 0512 88E3      		ldi r24,lo8(56)
 1039 0514 0E94 0000 		call send_command
 1040               	.LM177:
 1041 0518 8AE3      		ldi r24,lo8(58)
 1042 051a 0E94 0000 		call send_command
 1043               	.LM178:
 1044 051e 8FE0      		ldi r24,lo8(15)
 1045 0520 0E94 0000 		call send_char
 1046               	.LM179:
 1047 0524 8FE0      		ldi r24,lo8(15)
 1048 0526 0E94 0000 		call send_char
 1049               	.LM180:
 1050 052a 8FE0      		ldi r24,lo8(15)
 1051 052c 0E94 0000 		call send_char
 1052               	.LVL77:
 1053               	.LM181:
 1054 0530 90E0      		ldi r25,lo8(0)
 1055               	.LM182:
 1056 0532 2FE0      		ldi r18,lo8(15)
 1057 0534 B22E      		mov r11,r18
 1058               	.LM183:
 1059 0536 25E0      		ldi r18,lo8(5)
 1060 0538 00C0      		rjmp .L67
 1061               	.LVL78:
 1062               	.L76:
 1063               	.LBB91:
 1064               	.LBB92:
 1065               	.LM184:
 1066 053a 9923      		tst r25
 1067 053c 01F0      		breq .L106
 1068               	.LM185:
 1069 053e 9130      		cpi r25,lo8(1)
 1070 0540 01F0      		breq .L107
 1071               	.LM186:
 1072 0542 892F      		mov r24,r25
 1073 0544 8250      		subi r24,lo8(-(-2))
 1074 0546 8230      		cpi r24,lo8(2)
 1075 0548 00F0      		brlo .L108
 1076               	.LM187:
 1077 054a 9430      		cpi r25,lo8(4)
 1078 054c 01F0      		breq .L109
 1079               	.LM188:
 1080 054e 9530      		cpi r25,lo8(5)
 1081 0550 01F0      		breq .L111
 1082 0552 9830      		cpi r25,lo8(8)
 1083 0554 01F0      		breq .L111
 1084               	.LM189:
 1085 0556 9630      		cpi r25,lo8(6)
 1086 0558 01F0      		breq .L112
 1087               	.LM190:
 1088 055a 23E0      		ldi r18,lo8(3)
 1089 055c 00C0      		rjmp .L68
 1090               	.L106:
 1091               	.LM191:
 1092 055e 25E0      		ldi r18,lo8(5)
 1093 0560 00C0      		rjmp .L68
 1094               	.L107:
 1095               	.LM192:
 1096 0562 26E0      		ldi r18,lo8(6)
 1097 0564 00C0      		rjmp .L68
 1098               	.L108:
 1099               	.LM193:
 1100 0566 20E0      		ldi r18,lo8(0)
 1101 0568 00C0      		rjmp .L68
 1102               	.L109:
 1103               	.LM194:
 1104 056a 21E0      		ldi r18,lo8(1)
 1105 056c 00C0      		rjmp .L68
 1106               	.L111:
 1107               	.LM195:
 1108 056e 24E0      		ldi r18,lo8(4)
 1109 0570 00C0      		rjmp .L68
 1110               	.L112:
 1111               	.LM196:
 1112 0572 22E0      		ldi r18,lo8(2)
 1113               	.L68:
 1114               	.LM197:
 1115 0574 33E0      		ldi r19,lo8(3)
 1116 0576 B30E      		add r11,r19
 1117               	.LVL79:
 1118               	.L67:
 1119               	.LM198:
 1120 0578 85E1      		ldi r24,lo8(21)
 1121 057a CA5D      		subi r28,lo8(-294)
 1122 057c DE4F      		sbci r29,hi8(-294)
 1123 057e 2883      		st Y,r18
 1124 0580 C652      		subi r28,lo8(294)
 1125 0582 D140      		sbci r29,hi8(294)
 1126 0584 C95D      		subi r28,lo8(-295)
 1127 0586 DE4F      		sbci r29,hi8(-295)
 1128 0588 9883      		st Y,r25
 1129 058a C752      		subi r28,lo8(295)
 1130 058c D140      		sbci r29,hi8(295)
 1131 058e 0E94 0000 		call send_command
 1132               	.LVL80:
 1133               	.LM199:
 1134 0592 8B2D      		mov r24,r11
 1135 0594 0E94 0000 		call send_command
 1136               	.LM200:
 1137 0598 8B2D      		mov r24,r11
 1138 059a 8E5F      		subi r24,lo8(-(2))
 1139 059c 0E94 0000 		call send_command
 1140               	.LM201:
 1141 05a0 85E7      		ldi r24,lo8(117)
 1142 05a2 0E94 0000 		call send_command
 1143               	.LM202:
 1144 05a6 8FE2      		ldi r24,lo8(47)
 1145 05a8 0E94 0000 		call send_command
 1146               	.LM203:
 1147 05ac 84E3      		ldi r24,lo8(52)
 1148 05ae 0E94 0000 		call send_command
 1149               	.LM204:
 1150 05b2 CA5D      		subi r28,lo8(-294)
 1151 05b4 DE4F      		sbci r29,hi8(-294)
 1152 05b6 2881      		ld r18,Y
 1153 05b8 C652      		subi r28,lo8(294)
 1154 05ba D140      		sbci r29,hi8(294)
 1155 05bc C22E      		mov r12,r18
 1156 05be CC0C      		lsl r12
 1157 05c0 C20E      		add r12,r18
 1158 05c2 CC0C      		lsl r12
 1159               	.LVL81:
 1160               	.LM205:
 1161 05c4 86E0      		ldi r24,lo8(6)
 1162 05c6 A82E      		mov r10,r24
 1163 05c8 AC0C      		add r10,r12
 1164 05ca C95D      		subi r28,lo8(-295)
 1165 05cc DE4F      		sbci r29,hi8(-295)
 1166 05ce 9881      		ld r25,Y
 1167 05d0 C752      		subi r28,lo8(295)
 1168 05d2 D140      		sbci r29,hi8(295)
 1169 05d4 892E      		mov r8,r25
 1170               	.LVL82:
 1171               	.L75:
 1172               	.LM206:
 1173 05d6 EC2D      		mov r30,r12
 1174 05d8 F0E0      		ldi r31,lo8(0)
 1175 05da E050      		subi r30,lo8(-(speedoino_data))
 1176 05dc F040      		sbci r31,hi8(-(speedoino_data))
 1177 05de D080      		ld r13,Z
 1178               	.LVL83:
 1179               	.LM207:
 1180 05e0 C394      		inc r12
 1181               	.LVL84:
 1182               	.LM208:
 1183 05e2 D7FC      		sbrc r13,7
 1184 05e4 00C0      		rjmp .L113
 1185               	.LM209:
 1186 05e6 80E0      		ldi r24,lo8(0)
 1187 05e8 00C0      		rjmp .L69
 1188               	.L113:
 1189               	.LM210:
 1190 05ea 80EF      		ldi r24,lo8(-16)
 1191               	.L69:
 1192               	.LVL85:
 1193               	.LM211:
 1194 05ec D6FC      		sbrc r13,6
 1195 05ee 8F60      		ori r24,lo8(15)
 1196               	.LVL86:
 1197               	.L70:
 1198               	.LM212:
 1199 05f0 0E94 0000 		call send_char
 1200               	.LVL87:
 1201               	.LM213:
 1202 05f4 D5FE      		sbrs r13,5
 1203 05f6 00C0      		rjmp .L114
 1204 05f8 80EF      		ldi r24,lo8(-16)
 1205 05fa 00C0      		rjmp .L71
 1206               	.L114:
 1207               	.LM214:
 1208 05fc 80E0      		ldi r24,lo8(0)
 1209               	.L71:
 1210               	.LVL88:
 1211               	.LM215:
 1212 05fe D4FC      		sbrc r13,4
 1213 0600 8F60      		ori r24,lo8(15)
 1214               	.LVL89:
 1215               	.L72:
 1216               	.LM216:
 1217 0602 0E94 0000 		call send_char
 1218               	.LVL90:
 1219               	.LM217:
 1220 0606 D3FE      		sbrs r13,3
 1221 0608 00C0      		rjmp .L115
 1222 060a 80EF      		ldi r24,lo8(-16)
 1223 060c 00C0      		rjmp .L73
 1224               	.L115:
 1225               	.LM218:
 1226 060e 80E0      		ldi r24,lo8(0)
 1227               	.L73:
 1228               	.LVL91:
 1229               	.LM219:
 1230 0610 D2FC      		sbrc r13,2
 1231 0612 8F60      		ori r24,lo8(15)
 1232               	.LVL92:
 1233               	.L74:
 1234               	.LM220:
 1235 0614 0E94 0000 		call send_char
 1236               	.LVL93:
 1237               	.LM221:
 1238 0618 CA14      		cp r12,r10
 1239 061a 01F4      		brne .L75
 1240 061c 982D      		mov r25,r8
 1241               	.LVL94:
 1242               	.LM222:
 1243 061e 9F5F      		subi r25,lo8(-(1))
 1244               	.LVL95:
 1245 0620 9930      		cpi r25,lo8(9)
 1246 0622 01F0      		breq .+2
 1247 0624 00C0      		rjmp .L76
 1248               	.LM223:
 1249 0626 8EE1      		ldi r24,lo8(30)
 1250 0628 00C0      		rjmp .L65
 1251               	.LVL96:
 1252               	.L66:
 1253               	.LBE92:
 1254               	.LBE91:
 1255               	.LM224:
 1256 062a 8130      		cpi r24,lo8(1)
 1257 062c 01F4      		brne .L116
 1258               	.LM225:
 1259 062e 88E9      		ldi r24,lo8(-104)
 1260               	.LVL97:
 1261 0630 00C0      		rjmp .L65
 1262               	.LVL98:
 1263               	.L105:
 1264               	.LBE90:
 1265               	.LM226:
 1266 0632 80E0      		ldi r24,lo8(0)
 1267 0634 00C0      		rjmp .L65
 1268               	.LVL99:
 1269               	.L116:
 1270               	.LBB93:
 1271               	.LM227:
 1272 0636 81E0      		ldi r24,lo8(1)
 1273               	.LVL100:
 1274               	.L65:
 1275               	.LBE93:
 1276               	.LM228:
 1277 0638 1A82      		std Y+2,__zero_reg__
 1278               	.LM229:
 1279 063a 1B82      		std Y+3,__zero_reg__
 1280               	.LM230:
 1281 063c 9D81      		ldd r25,Y+5
 1282 063e 9C83      		std Y+4,r25
 1283               	.LM231:
 1284 0640 1D82      		std Y+5,__zero_reg__
 1285               	.LM232:
 1286 0642 8E83      		std Y+6,r24
 1287               	.LM233:
 1288 0644 1F82      		std Y+7,__zero_reg__
 1289 0646 90E0      		ldi r25,lo8(0)
 1290               	.LM234:
 1291 0648 B7E0      		ldi r27,lo8(7)
 1292 064a CB2E      		mov r12,r27
 1293 064c D12C      		mov r13,__zero_reg__
 1294 064e 00C0      		rjmp .L77
 1295               	.LVL101:
 1296               	.L153:
 1297               	.LBE89:
 1298               	.LM235:
 1299 0650 1A82      		std Y+2,__zero_reg__
 1300               	.LM236:
 1301 0652 88E0      		ldi r24,lo8(8)
 1302 0654 8B83      		std Y+3,r24
 1303               	.LM237:
 1304 0656 81E4      		ldi r24,lo8(65)
 1305 0658 8C83      		std Y+4,r24
 1306               	.LM238:
 1307 065a 86E5      		ldi r24,lo8(86)
 1308 065c 8D83      		std Y+5,r24
 1309               	.LM239:
 1310 065e 82E5      		ldi r24,lo8(82)
 1311 0660 8E83      		std Y+6,r24
 1312               	.LM240:
 1313 0662 89E4      		ldi r24,lo8(73)
 1314 0664 8F83      		std Y+7,r24
 1315               	.LM241:
 1316 0666 83E5      		ldi r24,lo8(83)
 1317 0668 8887      		std Y+8,r24
 1318               	.LM242:
 1319 066a 80E5      		ldi r24,lo8(80)
 1320 066c 8987      		std Y+9,r24
 1321               	.LM243:
 1322 066e 8FE5      		ldi r24,lo8(95)
 1323 0670 8A87      		std Y+10,r24
 1324               	.LM244:
 1325 0672 82E3      		ldi r24,lo8(50)
 1326 0674 8B87      		std Y+11,r24
 1327               	.LM245:
 1328 0676 90E0      		ldi r25,lo8(0)
 1329               	.LM246:
 1330 0678 ABE0      		ldi r26,lo8(11)
 1331 067a CA2E      		mov r12,r26
 1332 067c D12C      		mov r13,__zero_reg__
 1333               	.LM247:
 1334 067e 00C0      		rjmp .L77
 1335               	.LVL102:
 1336               	.L51:
 1337               	.LBB94:
 1338               	.LM248:
 1339 0680 EA81      		ldd r30,Y+2
 1340 0682 E058      		subi r30,lo8(-(-128))
 1341 0684 E331      		cpi r30,lo8(19)
 1342 0686 00F4      		brsh .L117
 1343 0688 F0E0      		ldi r31,lo8(0)
 1344 068a E050      		subi r30,lo8(-(CSWTCH.7))
 1345 068c F040      		sbci r31,hi8(-(CSWTCH.7))
 1346 068e 8081      		ld r24,Z
 1347 0690 00C0      		rjmp .L78
 1348               	.L117:
 1349 0692 80E0      		ldi r24,lo8(0)
 1350               	.L78:
 1351               	.LVL103:
 1352               	.LM249:
 1353 0694 1A82      		std Y+2,__zero_reg__
 1354               	.LM250:
 1355 0696 8B83      		std Y+3,r24
 1356 0698 00C0      		rjmp .L143
 1357               	.LVL104:
 1358               	.L53:
 1359               	.LBE94:
 1360               	.LM251:
 1361 069a 1A82      		std Y+2,__zero_reg__
 1362               	.LM252:
 1363 069c 91E0      		ldi r25,lo8(1)
 1364 069e 00C0      		rjmp .L144
 1365               	.LVL105:
 1366               	.L60:
 1367               	.LBB95:
 1368               	.LM253:
 1369 06a0 8D81      		ldd r24,Y+5
 1370               	.LVL106:
 1371               	.LM254:
 1372 06a2 8823      		tst r24
 1373 06a4 01F0      		breq .L118
 1374               	.LM255:
 1375 06a6 8130      		cpi r24,lo8(1)
 1376 06a8 01F4      		brne .L119
 1377               	.LM256:
 1378 06aa 88E9      		ldi r24,lo8(-104)
 1379 06ac 00C0      		rjmp .L147
 1380               	.L118:
 1381               	.LM257:
 1382 06ae 8EE1      		ldi r24,lo8(30)
 1383 06b0 00C0      		rjmp .L147
 1384               	.L119:
 1385               	.LM258:
 1386 06b2 81E0      		ldi r24,lo8(1)
 1387               	.LVL107:
 1388 06b4 00C0      		rjmp .L147
 1389               	.LVL108:
 1390               	.L59:
 1391               	.LBE95:
 1392               	.LM259:
 1393 06b6 1A82      		std Y+2,__zero_reg__
 1394               	.LBB96:
 1395               	.LM260:
 1396 06b8 E1E0      		ldi r30,lo8(1)
 1397 06ba F0E0      		ldi r31,hi8(1)
 1398 06bc 89E0      		ldi r24,lo8(9)
 1399               	/* #APP */
 1400               	 ;  827 "stk500boot.c" 1
 1401 06be 8093 5700 		sts 87, r24
 1402 06c2 E491      		lpm r30, Z
 1403               		
 1404               	 ;  0 "" 2
 1405               	.LVL109:
 1406               	/* #NOAPP */
 1407               	.LBE96:
 1408 06c4 EB83      		std Y+3,r30
 1409               	.LVL110:
 1410               	.L145:
 1411               	.LM261:
 1412 06c6 1C82      		std Y+4,__zero_reg__
 1413               	.LM262:
 1414 06c8 90E0      		ldi r25,lo8(0)
 1415               	.LM263:
 1416 06ca F4E0      		ldi r31,lo8(4)
 1417 06cc CF2E      		mov r12,r31
 1418 06ce D12C      		mov r13,__zero_reg__
 1419               	.LM264:
 1420 06d0 00C0      		rjmp .L77
 1421               	.LVL111:
 1422               	.L57:
 1423               	.LBB97:
 1424               	.LM265:
 1425 06d2 8B81      		ldd r24,Y+3
 1426 06d4 8035      		cpi r24,lo8(80)
 1427 06d6 01F4      		brne .L80
 1428               	.LM266:
 1429 06d8 8C81      		ldd r24,Y+4
 1430 06da 8830      		cpi r24,lo8(8)
 1431 06dc 01F4      		brne .L81
 1432               	.LBB99:
 1433               	.LM267:
 1434 06de E2E0      		ldi r30,lo8(2)
 1435 06e0 F0E0      		ldi r31,hi8(2)
 1436 06e2 00C0      		rjmp .L141
 1437               	.L81:
 1438               	.LBE99:
 1439               	.LBB100:
 1440               	.LM268:
 1441 06e4 89E0      		ldi r24,lo8(9)
 1442 06e6 E0E0      		ldi r30,lo8(0)
 1443 06e8 F0E0      		ldi r31,hi8(0)
 1444 06ea 00C0      		rjmp .L142
 1445               	.L80:
 1446               	.LBE100:
 1447               	.LBB101:
 1448               	.LM269:
 1449 06ec E3E0      		ldi r30,lo8(3)
 1450 06ee F0E0      		ldi r31,hi8(3)
 1451               	.L141:
 1452 06f0 89E0      		ldi r24,lo8(9)
 1453               	.L142:
 1454               	/* #APP */
 1455               	 ;  844 "stk500boot.c" 1
 1456 06f2 8093 5700 		sts 87, r24
 1457 06f6 8491      		lpm r24, Z
 1458               		
 1459               	 ;  0 "" 2
 1460               	/* #NOAPP */
 1461               	.L147:
 1462               	.LVL112:
 1463               	.LBE101:
 1464               	.LM270:
 1465 06f8 1A82      		std Y+2,__zero_reg__
 1466               	.LM271:
 1467 06fa 8B83      		std Y+3,r24
 1468 06fc 00C0      		rjmp .L145
 1469               	.LVL113:
 1470               	.L58:
 1471               	.LBE97:
 1472               	.LBB103:
 1473               	.LM272:
 1474 06fe 8D81      		ldd r24,Y+5
 1475               	.LVL114:
 1476               	.LBB104:
 1477               	.LM273:
 1478 0700 836C      		ori r24,lo8(-61)
 1479 0702 99E0      		ldi r25,lo8(9)
 1480               	/* #APP */
 1481               	 ;  859 "stk500boot.c" 1
 1482 0704 E1E0      		ldi r30, 1
 1483 0706 F0E0      		ldi r31, 0
 1484 0708 082E      		mov r0, r24
 1485 070a 9093 5700 		sts 87, r25
 1486 070e E895      		spm
 1487               		
 1488               	 ;  0 "" 2
 1489               	/* #NOAPP */
 1490               	.L83:
 1491               	.LBE104:
 1492               	.LM274:
 1493 0710 07B6      		in __tmp_reg__,87-32
 1494 0712 00FC      		sbrc __tmp_reg__,0
 1495 0714 00C0      		rjmp .L83
 1496               	.LVL115:
 1497               	.LM275:
 1498 0716 1A82      		std Y+2,__zero_reg__
 1499               	.LM276:
 1500 0718 1B82      		std Y+3,__zero_reg__
 1501               	.LVL116:
 1502               	.L143:
 1503               	.LBE103:
 1504               	.LM277:
 1505 071a 90E0      		ldi r25,lo8(0)
 1506               	.LM278:
 1507 071c E3E0      		ldi r30,lo8(3)
 1508 071e CE2E      		mov r12,r30
 1509 0720 D12C      		mov r13,__zero_reg__
 1510               	.LM279:
 1511 0722 00C0      		rjmp .L77
 1512               	.LVL117:
 1513               	.L54:
 1514               	.LM280:
 1515 0724 1A82      		std Y+2,__zero_reg__
 1516               	.LM281:
 1517 0726 90E0      		ldi r25,lo8(0)
 1518               	.LM282:
 1519 0728 72E0      		ldi r23,lo8(2)
 1520 072a C72E      		mov r12,r23
 1521 072c D12C      		mov r13,__zero_reg__
 1522               	.LM283:
 1523 072e 4424      		clr r4
 1524 0730 5524      		clr r5
 1525 0732 3201      		movw r6,r4
 1526               	.LM284:
 1527 0734 00C0      		rjmp .L77
 1528               	.LVL118:
 1529               	.L52:
 1530               	.LM285:
 1531 0736 EA80      		ldd r14,Y+2
 1532 0738 FF24      		clr r15
 1533 073a 00E0      		ldi r16,lo8(0)
 1534 073c 10E0      		ldi r17,hi8(0)
 1535 073e 1E2D      		mov r17,r14
 1536 0740 0027      		clr r16
 1537 0742 FF24      		clr r15
 1538 0744 EE24      		clr r14
 1539 0746 8B81      		ldd r24,Y+3
 1540 0748 90E0      		ldi r25,lo8(0)
 1541 074a A0E0      		ldi r26,lo8(0)
 1542 074c B0E0      		ldi r27,hi8(0)
 1543 074e DC01      		movw r26,r24
 1544 0750 9927      		clr r25
 1545 0752 8827      		clr r24
 1546 0754 E82A      		or r14,r24
 1547 0756 F92A      		or r15,r25
 1548 0758 0A2B      		or r16,r26
 1549 075a 1B2B      		or r17,r27
 1550 075c 8D81      		ldd r24,Y+5
 1551 075e 90E0      		ldi r25,lo8(0)
 1552 0760 A0E0      		ldi r26,lo8(0)
 1553 0762 B0E0      		ldi r27,hi8(0)
 1554 0764 E82A      		or r14,r24
 1555 0766 F92A      		or r15,r25
 1556 0768 0A2B      		or r16,r26
 1557 076a 1B2B      		or r17,r27
 1558 076c 8C81      		ldd r24,Y+4
 1559 076e 90E0      		ldi r25,lo8(0)
 1560 0770 A0E0      		ldi r26,lo8(0)
 1561 0772 B0E0      		ldi r27,hi8(0)
 1562 0774 BA2F      		mov r27,r26
 1563 0776 A92F      		mov r26,r25
 1564 0778 982F      		mov r25,r24
 1565 077a 8827      		clr r24
 1566 077c E82A      		or r14,r24
 1567 077e F92A      		or r15,r25
 1568 0780 0A2B      		or r16,r26
 1569 0782 1B2B      		or r17,r27
 1570 0784 EE0C      		lsl r14
 1571 0786 FF1C      		rol r15
 1572 0788 001F      		rol r16
 1573 078a 111F      		rol r17
 1574               	.LVL119:
 1575 078c 00C0      		rjmp .L89
 1576               	.LVL120:
 1577               	.L55:
 1578               	.LBB105:
 1579               	.LM286:
 1580 078e FA81      		ldd r31,Y+2
 1581 0790 C15E      		subi r28,lo8(-287)
 1582 0792 DE4F      		sbci r29,hi8(-287)
 1583 0794 F883      		st Y,r31
 1584 0796 CF51      		subi r28,lo8(287)
 1585 0798 D140      		sbci r29,hi8(287)
 1586 079a C25E      		subi r28,lo8(-286)
 1587 079c DE4F      		sbci r29,hi8(-286)
 1588 079e 1882      		st Y,__zero_reg__
 1589 07a0 CE51      		subi r28,lo8(286)
 1590 07a2 D140      		sbci r29,hi8(286)
 1591 07a4 8B81      		ldd r24,Y+3
 1592 07a6 90E0      		ldi r25,lo8(0)
 1593 07a8 C25E      		subi r28,lo8(-286)
 1594 07aa DE4F      		sbci r29,hi8(-286)
 1595 07ac 2881      		ld r18,Y
 1596 07ae 3981      		ldd r19,Y+1
 1597 07b0 CE51      		subi r28,lo8(286)
 1598 07b2 D140      		sbci r29,hi8(286)
 1599               	.LVL121:
 1600 07b4 822B      		or r24,r18
 1601 07b6 932B      		or r25,r19
 1602               	.LVL122:
 1603               	.LM287:
 1604 07b8 4331      		cpi r20,lo8(19)
 1605 07ba 01F0      		breq .+2
 1606 07bc 00C0      		rjmp .L84
 1607               	.LM288:
 1608 07be 30E0      		ldi r19,lo8(245760)
 1609 07c0 4316      		cp r4,r19
 1610 07c2 30EC      		ldi r19,hi8(245760)
 1611 07c4 5306      		cpc r5,r19
 1612 07c6 33E0      		ldi r19,hlo8(245760)
 1613 07c8 6306      		cpc r6,r19
 1614 07ca 30E0      		ldi r19,hhi8(245760)
 1615 07cc 7306      		cpc r7,r19
 1616 07ce 00F4      		brsh .L85
 1617               	.LM289:
 1618 07d0 43E0      		ldi r20,lo8(3)
 1619               	/* #APP */
 1620               	 ;  899 "stk500boot.c" 1
 1621 07d2 F201      		movw r30, r4
 1622 07d4 6092 5B00 		sts  91, r6
 1623 07d8 4093 5700 		sts 87, r20
 1624 07dc E895      		spm
 1625               		
 1626               	 ;  0 "" 2
 1627               	/* #NOAPP */
 1628               	.L86:
 1629               	.LM290:
 1630 07de 07B6      		in __tmp_reg__,87-32
 1631 07e0 00FC      		sbrc __tmp_reg__,0
 1632 07e2 00C0      		rjmp .L86
 1633               	.LM291:
 1634 07e4 20E0      		ldi r18,lo8(256)
 1635 07e6 31E0      		ldi r19,hi8(256)
 1636 07e8 40E0      		ldi r20,hlo8(256)
 1637 07ea 50E0      		ldi r21,hhi8(256)
 1638 07ec 420E      		add r4,r18
 1639 07ee 531E      		adc r5,r19
 1640 07f0 641E      		adc r6,r20
 1641 07f2 751E      		adc r7,r21
 1642               	.LVL123:
 1643               	.L85:
 1644               	.LBE105:
 1645               	.LBB106:
 1646               	.LBB98:
 1647               	.LM292:
 1648 07f4 DE01      		movw r26,r28
 1649 07f6 1B96      		adiw r26,11
 1650 07f8 A801      		movw r20,r16
 1651 07fa 9701      		movw r18,r14
 1652               	.L87:
 1653               	.LVL124:
 1654               	.LBE98:
 1655               	.LBE106:
 1656               	.LBB107:
 1657               	.LM293:
 1658 07fc 6C91      		ld r22,X
 1659               	.LVL125:
 1660               	.LM294:
 1661 07fe 1196      		adiw r26,1
 1662 0800 7C91      		ld r23,X
 1663 0802 1197      		sbiw r26,1
 1664               	.LVL126:
 1665               	.LM295:
 1666 0804 1296      		adiw r26,2
 1667               	.LVL127:
 1668               	.LM296:
 1669 0806 CF5D      		subi r28,lo8(-289)
 1670 0808 DE4F      		sbci r29,hi8(-289)
 1671 080a 7883      		st Y,r23
 1672 080c C152      		subi r28,lo8(289)
 1673 080e D140      		sbci r29,hi8(289)
 1674 0810 C05E      		subi r28,lo8(-288)
 1675 0812 DE4F      		sbci r29,hi8(-288)
 1676 0814 1882      		st Y,__zero_reg__
 1677 0816 C052      		subi r28,lo8(288)
 1678 0818 D140      		sbci r29,hi8(288)
 1679 081a 70E0      		ldi r23,lo8(0)
 1680 081c C05E      		subi r28,lo8(-288)
 1681 081e DE4F      		sbci r29,hi8(-288)
 1682 0820 E881      		ld r30,Y
 1683 0822 F981      		ldd r31,Y+1
 1684 0824 C052      		subi r28,lo8(288)
 1685 0826 D140      		sbci r29,hi8(288)
 1686 0828 6E2B      		or r22,r30
 1687 082a 7F2B      		or r23,r31
 1688               	.LM297:
 1689 082c DD24      		clr r13
 1690 082e D394      		inc r13
 1691               	/* #APP */
 1692               	 ;  910 "stk500boot.c" 1
 1693 0830 0B01      		movw  r0, r22
 1694 0832 F901      		movw r30, r18
 1695 0834 4093 5B00 		sts 91, r20
 1696 0838 D092 5700 		sts 87, r13
 1697 083c E895      		spm
 1698 083e 1124      		clr  r1
 1699               		
 1700               	 ;  0 "" 2
 1701               	.LM298:
 1702               	/* #NOAPP */
 1703 0840 2E5F      		subi r18,lo8(-(2))
 1704 0842 3F4F      		sbci r19,hi8(-(2))
 1705 0844 4F4F      		sbci r20,hlo8(-(2))
 1706 0846 5F4F      		sbci r21,hhi8(-(2))
 1707               	.LVL128:
 1708               	.LM299:
 1709 0848 0297      		sbiw r24,2
 1710               	.LVL129:
 1711               	.LM300:
 1712 084a 01F4      		brne .L87
 1713 084c 5901      		movw r10,r18
 1714 084e 6A01      		movw r12,r20
 1715               	.LM301:
 1716 0850 25E0      		ldi r18,lo8(5)
 1717               	.LVL130:
 1718               	/* #APP */
 1719               	 ;  916 "stk500boot.c" 1
 1720 0852 F701      		movw r30, r14
 1721 0854 0093 5B00 		sts 91, r16
 1722 0858 2093 5700 		sts 87, r18
 1723 085c E895      		spm
 1724               		
 1725               	 ;  0 "" 2
 1726               	.LM302:
 1727               	/* #NOAPP */
 1728 085e 85E1      		ldi r24,lo8(21)
 1729               	.LVL131:
 1730 0860 0E94 0000 		call send_command
 1731               	.LVL132:
 1732               	.LM303:
 1733 0864 C801      		movw r24,r16
 1734 0866 B701      		movw r22,r14
 1735 0868 2CE7      		ldi r18,lo8(124)
 1736 086a 30E0      		ldi r19,hi8(124)
 1737 086c 40E0      		ldi r20,hlo8(124)
 1738 086e 50E0      		ldi r21,hhi8(124)
 1739 0870 0E94 0000 		call __mulsi3
 1740 0874 20E0      		ldi r18,lo8(491520)
 1741 0876 30E8      		ldi r19,hi8(491520)
 1742 0878 47E0      		ldi r20,hlo8(491520)
 1743 087a 50E0      		ldi r21,hhi8(491520)
 1744 087c 0E94 0000 		call __udivmodsi4
 1745 0880 022F      		mov r16,r18
 1746 0882 0F5F      		subi r16,lo8(-(1))
 1747 0884 802F      		mov r24,r16
 1748 0886 0E94 0000 		call send_command
 1749               	.LM304:
 1750 088a 802F      		mov r24,r16
 1751 088c 0E94 0000 		call send_command
 1752               	.LM305:
 1753 0890 85E7      		ldi r24,lo8(117)
 1754 0892 0E94 0000 		call send_command
 1755               	.LM306:
 1756 0896 89E3      		ldi r24,lo8(57)
 1757 0898 0E94 0000 		call send_command
 1758               	.LM307:
 1759 089c 89E3      		ldi r24,lo8(57)
 1760 089e 0E94 0000 		call send_command
 1761               	.LM308:
 1762 08a2 8FEF      		ldi r24,lo8(-1)
 1763 08a4 0E94 0000 		call send_char
 1764               	.L88:
 1765               	.LM309:
 1766 08a8 07B6      		in __tmp_reg__,87-32
 1767 08aa 00FC      		sbrc __tmp_reg__,0
 1768 08ac 00C0      		rjmp .L88
 1769               	.LM310:
 1770 08ae 81E1      		ldi r24,lo8(17)
 1771               	/* #APP */
 1772               	 ;  928 "stk500boot.c" 1
 1773 08b0 8093 5700 		sts 87, r24
 1774 08b4 E895      		spm
 1775               		
 1776               	 ;  0 "" 2
 1777               	.LM311:
 1778               	/* #NOAPP */
 1779 08b6 8601      		movw r16,r12
 1780 08b8 7501      		movw r14,r10
 1781               	.LVL133:
 1782 08ba 00C0      		rjmp .L89
 1783               	.LVL134:
 1784               	.L84:
 1785               	.LM312:
 1786 08bc 0197      		sbiw r24,1
 1787               	.LVL135:
 1788 08be A0E0      		ldi r26,lo8(0)
 1789 08c0 B0E0      		ldi r27,hi8(0)
 1790 08c2 0196      		adiw r24,1
 1791 08c4 A11D      		adc r26,__zero_reg__
 1792 08c6 B11D      		adc r27,__zero_reg__
 1793               	.LVL136:
 1794 08c8 8E0D      		add r24,r14
 1795 08ca 9F1D      		adc r25,r15
 1796 08cc A01F      		adc r26,r16
 1797 08ce B11F      		adc r27,r17
 1798               	.LBE107:
 1799               	.LBB108:
 1800               	.LBB102:
 1801               	.LM313:
 1802 08d0 FE01      		movw r30,r28
 1803 08d2 3B96      		adiw r30,11
 1804               	.LVL137:
 1805               	.L91:
 1806               	.LBE102:
 1807               	.LBE108:
 1808               	.LBB109:
 1809               	.LM314:
 1810 08d4 E1BC      		out 65-32,r14
 1811               	.LM315:
 1812 08d6 5527      		clr r21
 1813 08d8 412F      		mov r20,r17
 1814 08da 302F      		mov r19,r16
 1815 08dc 2F2D      		mov r18,r15
 1816 08de 22BD      		out 66-32,r18
 1817               	.LM316:
 1818 08e0 0894      		sec
 1819 08e2 E11C      		adc r14,__zero_reg__
 1820 08e4 F11C      		adc r15,__zero_reg__
 1821 08e6 011D      		adc r16,__zero_reg__
 1822 08e8 111D      		adc r17,__zero_reg__
 1823               	.LVL138:
 1824               	.LM317:
 1825 08ea 2191      		ld r18,Z+
 1826               	.LVL139:
 1827 08ec 20BD      		out 64-32,r18
 1828               	.LVL140:
 1829               	.LM318:
 1830 08ee FA9A      		sbi 63-32,2
 1831               	.LM319:
 1832 08f0 F99A      		sbi 63-32,1
 1833               	.L90:
 1834               	.LM320:
 1835 08f2 F999      		sbic 63-32,1
 1836 08f4 00C0      		rjmp .L90
 1837               	.LM321:
 1838 08f6 E816      		cp r14,r24
 1839 08f8 F906      		cpc r15,r25
 1840 08fa 0A07      		cpc r16,r26
 1841 08fc 1B07      		cpc r17,r27
 1842 08fe 01F4      		brne .L91
 1843               	.LVL141:
 1844               	.L89:
 1845               	.LM322:
 1846 0900 1A82      		std Y+2,__zero_reg__
 1847 0902 00C0      		rjmp .L148
 1848               	.LVL142:
 1849               	.L56:
 1850               	.LBE109:
 1851               	.LBB110:
 1852               	.LM323:
 1853 0904 3A81      		ldd r19,Y+2
 1854 0906 CD5D      		subi r28,lo8(-291)
 1855 0908 DE4F      		sbci r29,hi8(-291)
 1856 090a 3883      		st Y,r19
 1857 090c C352      		subi r28,lo8(291)
 1858 090e D140      		sbci r29,hi8(291)
 1859 0910 CE5D      		subi r28,lo8(-290)
 1860 0912 DE4F      		sbci r29,hi8(-290)
 1861 0914 1882      		st Y,__zero_reg__
 1862 0916 C252      		subi r28,lo8(290)
 1863 0918 D140      		sbci r29,hi8(290)
 1864 091a 2B81      		ldd r18,Y+3
 1865               	.LVL143:
 1866 091c 30E0      		ldi r19,lo8(0)
 1867 091e CE5D      		subi r28,lo8(-290)
 1868 0920 DE4F      		sbci r29,hi8(-290)
 1869 0922 8881      		ld r24,Y
 1870 0924 9981      		ldd r25,Y+1
 1871 0926 C252      		subi r28,lo8(290)
 1872 0928 D140      		sbci r29,hi8(290)
 1873 092a 282B      		or r18,r24
 1874 092c 392B      		or r19,r25
 1875               	.LVL144:
 1876               	.LM324:
 1877 092e 73E0      		ldi r23,lo8(3)
 1878 0930 C72E      		mov r12,r23
 1879 0932 D12C      		mov r13,__zero_reg__
 1880 0934 C20E      		add r12,r18
 1881 0936 D31E      		adc r13,r19
 1882               	.LVL145:
 1883               	.LM325:
 1884 0938 1A82      		std Y+2,__zero_reg__
 1885               	.LVL146:
 1886               	.LM326:
 1887 093a 4431      		cpi r20,lo8(20)
 1888 093c 01F4      		brne .L92
 1889               	.LM327:
 1890 093e DE01      		movw r26,r28
 1891 0940 1396      		adiw r26,3
 1892 0942 AD01      		movw r20,r26
 1893 0944 D801      		movw r26,r16
 1894 0946 C701      		movw r24,r14
 1895               	.L93:
 1896               	.LVL147:
 1897               	.LBB111:
 1898               	.LBB112:
 1899               	.LM328:
 1900               	/* #APP */
 1901               	 ;  966 "stk500boot.c" 1
 1902 0948 ABBF      		out 59, r26
 1903 094a FC01      		movw r30, r24
 1904 094c 6791      		elpm r22, Z+
 1905 094e 7691      		elpm r23, Z
 1906               		
 1907               	 ;  0 "" 2
 1908               	/* #NOAPP */
 1909               	.LBE112:
 1910               	.LM329:
 1911 0950 FA01      		movw r30,r20
 1912 0952 6083      		st Z,r22
 1913               	.LVL148:
 1914               	.LM330:
 1915 0954 7183      		std Z+1,r23
 1916               	.LM331:
 1917 0956 4E5F      		subi r20,lo8(-(2))
 1918 0958 5F4F      		sbci r21,hi8(-(2))
 1919               	.LVL149:
 1920               	.LM332:
 1921 095a 0296      		adiw r24,2
 1922 095c A11D      		adc r26,__zero_reg__
 1923 095e B11D      		adc r27,__zero_reg__
 1924               	.LVL150:
 1925               	.LM333:
 1926 0960 2250      		subi r18,lo8(-(-2))
 1927 0962 3040      		sbci r19,hi8(-(-2))
 1928               	.LVL151:
 1929               	.LM334:
 1930 0964 01F4      		brne .L93
 1931 0966 7C01      		movw r14,r24
 1932 0968 8D01      		movw r16,r26
 1933 096a DA01      		movw r26,r20
 1934 096c 00C0      		rjmp .L94
 1935               	.LVL152:
 1936               	.L92:
 1937               	.LM335:
 1938 096e FE01      		movw r30,r28
 1939 0970 3396      		adiw r30,3
 1940               	.LM336:
 1941 0972 2150      		subi r18,lo8(-(-1))
 1942 0974 3040      		sbci r19,hi8(-(-1))
 1943               	.LVL153:
 1944 0976 40E0      		ldi r20,lo8(0)
 1945 0978 50E0      		ldi r21,hi8(0)
 1946 097a 2F5F      		subi r18,lo8(-(1))
 1947 097c 3F4F      		sbci r19,hi8(-(1))
 1948 097e 4F4F      		sbci r20,hlo8(-(1))
 1949 0980 5F4F      		sbci r21,hhi8(-(1))
 1950               	.LVL154:
 1951 0982 2E0D      		add r18,r14
 1952 0984 3F1D      		adc r19,r15
 1953 0986 401F      		adc r20,r16
 1954 0988 511F      		adc r21,r17
 1955               	.L95:
 1956               	.LVL155:
 1957               	.LBE111:
 1958               	.LM337:
 1959 098a E1BC      		out 65-32,r14
 1960               	.LM338:
 1961 098c BB27      		clr r27
 1962 098e A12F      		mov r26,r17
 1963 0990 902F      		mov r25,r16
 1964 0992 8F2D      		mov r24,r15
 1965 0994 82BD      		out 66-32,r24
 1966               	.LM339:
 1967 0996 0894      		sec
 1968 0998 E11C      		adc r14,__zero_reg__
 1969 099a F11C      		adc r15,__zero_reg__
 1970 099c 011D      		adc r16,__zero_reg__
 1971 099e 111D      		adc r17,__zero_reg__
 1972               	.LVL156:
 1973               	.LM340:
 1974 09a0 F89A      		sbi 63-32,0
 1975               	.LM341:
 1976 09a2 80B5      		in r24,64-32
 1977 09a4 8193      		st Z+,r24
 1978 09a6 DF01      		movw r26,r30
 1979               	.LVL157:
 1980               	.LM342:
 1981 09a8 E216      		cp r14,r18
 1982 09aa F306      		cpc r15,r19
 1983 09ac 0407      		cpc r16,r20
 1984 09ae 1507      		cpc r17,r21
 1985 09b0 01F4      		brne .L95
 1986               	.LVL158:
 1987               	.L94:
 1988               	.LM343:
 1989 09b2 1C92      		st X,__zero_reg__
 1990               	.LVL159:
 1991               	.LBE110:
 1992               	.LM344:
 1993 09b4 90E0      		ldi r25,lo8(0)
 1994 09b6 00C0      		rjmp .L77
 1995               	.LVL160:
 1996               	.L48:
 1997               	.LM345:
 1998 09b8 80EC      		ldi r24,lo8(-64)
 1999 09ba 8A83      		std Y+2,r24
 2000               	.LVL161:
 2001               	.L148:
 2002               	.LM346:
 2003 09bc 90E0      		ldi r25,lo8(0)
 2004               	.L144:
 2005               	.LM347:
 2006 09be 22E0      		ldi r18,lo8(2)
 2007 09c0 C22E      		mov r12,r18
 2008 09c2 D12C      		mov r13,__zero_reg__
 2009               	.LVL162:
 2010               	.L77:
 2011               	.LM348:
 2012 09c4 8BE1      		ldi r24,lo8(27)
 2013 09c6 C95D      		subi r28,lo8(-295)
 2014 09c8 DE4F      		sbci r29,hi8(-295)
 2015 09ca 9883      		st Y,r25
 2016 09cc C752      		subi r28,lo8(295)
 2017 09ce D140      		sbci r29,hi8(295)
 2018 09d0 0E94 0000 		call sendchar
 2019               	.LVL163:
 2020               	.LM349:
 2021 09d4 892D      		mov r24,r9
 2022 09d6 0E94 0000 		call sendchar
 2023               	.LVL164:
 2024               	.LM350:
 2025 09da 8D2D      		mov r24,r13
 2026 09dc 0E94 0000 		call sendchar
 2027               	.LVL165:
 2028               	.LM351:
 2029 09e0 8C2D      		mov r24,r12
 2030 09e2 0E94 0000 		call sendchar
 2031               	.LVL166:
 2032               	.LM352:
 2033 09e6 8EE0      		ldi r24,lo8(14)
 2034 09e8 0E94 0000 		call sendchar
 2035               	.LM353:
 2036 09ec 95E1      		ldi r25,lo8(21)
 2037 09ee 892E      		mov r8,r25
 2038 09f0 8924      		eor r8,r9
 2039               	.LM354:
 2040 09f2 8C24      		eor r8,r12
 2041               	.LM355:
 2042 09f4 8D24      		eor r8,r13
 2043               	.LVL167:
 2044               	.LM356:
 2045 09f6 5E01      		movw r10,r28
 2046 09f8 0894      		sec
 2047 09fa A11C      		adc r10,__zero_reg__
 2048 09fc B11C      		adc r11,__zero_reg__
 2049 09fe 00C0      		rjmp .L146
 2050               	.LVL168:
 2051               	.L97:
 2052               	.LM357:
 2053 0a00 F501      		movw r30,r10
 2054 0a02 2191      		ld r18,Z+
 2055 0a04 5F01      		movw r10,r30
 2056               	.LVL169:
 2057               	.LM358:
 2058 0a06 822F      		mov r24,r18
 2059 0a08 CA5D      		subi r28,lo8(-294)
 2060 0a0a DE4F      		sbci r29,hi8(-294)
 2061 0a0c 2883      		st Y,r18
 2062 0a0e C652      		subi r28,lo8(294)
 2063 0a10 D140      		sbci r29,hi8(294)
 2064 0a12 C95D      		subi r28,lo8(-295)
 2065 0a14 DE4F      		sbci r29,hi8(-295)
 2066 0a16 9883      		st Y,r25
 2067 0a18 C752      		subi r28,lo8(295)
 2068 0a1a D140      		sbci r29,hi8(295)
 2069 0a1c 0E94 0000 		call sendchar
 2070               	.LVL170:
 2071               	.LM359:
 2072 0a20 CA5D      		subi r28,lo8(-294)
 2073 0a22 DE4F      		sbci r29,hi8(-294)
 2074 0a24 2881      		ld r18,Y
 2075 0a26 C652      		subi r28,lo8(294)
 2076 0a28 D140      		sbci r29,hi8(294)
 2077 0a2a 8226      		eor r8,r18
 2078               	.LVL171:
 2079               	.LM360:
 2080 0a2c 0894      		sec
 2081 0a2e C108      		sbc r12,__zero_reg__
 2082 0a30 D108      		sbc r13,__zero_reg__
 2083               	.LVL172:
 2084               	.L146:
 2085 0a32 C95D      		subi r28,lo8(-295)
 2086 0a34 DE4F      		sbci r29,hi8(-295)
 2087 0a36 9881      		ld r25,Y
 2088 0a38 C752      		subi r28,lo8(295)
 2089 0a3a D140      		sbci r29,hi8(295)
 2090               	.LVL173:
 2091               	.LM361:
 2092 0a3c C114      		cp r12,__zero_reg__
 2093 0a3e D104      		cpc r13,__zero_reg__
 2094 0a40 01F4      		brne .L97
 2095               	.LM362:
 2096 0a42 882D      		mov r24,r8
 2097 0a44 C95D      		subi r28,lo8(-295)
 2098 0a46 DE4F      		sbci r29,hi8(-295)
 2099 0a48 9883      		st Y,r25
 2100 0a4a C752      		subi r28,lo8(295)
 2101 0a4c D140      		sbci r29,hi8(295)
 2102 0a4e 0E94 0000 		call sendchar
 2103               	.LVL174:
 2104               	.LM363:
 2105 0a52 C95D      		subi r28,lo8(-295)
 2106 0a54 DE4F      		sbci r29,hi8(-295)
 2107 0a56 9881      		ld r25,Y
 2108 0a58 C752      		subi r28,lo8(295)
 2109 0a5a D140      		sbci r29,hi8(295)
 2110 0a5c 9923      		tst r25
 2111 0a5e 01F4      		brne .L28
 2112               	.LM364:
 2113 0a60 9394      		inc r9
 2114               	.LVL175:
 2115 0a62 20E0      		ldi r18,lo8(0)
 2116 0a64 30E0      		ldi r19,hi8(0)
 2117               	.LVL176:
 2118               	.L29:
 2119               	.LM365:
 2120 0a66 60E0      		ldi r22,lo8(0)
 2121 0a68 70E0      		ldi r23,hi8(0)
 2122 0a6a 80E0      		ldi r24,lo8(0)
 2123 0a6c 00C0      		rjmp .L98
 2124               	.LVL177:
 2125               	.L28:
 2126               	.LM366:
 2127               	/* #APP */
 2128               	 ;  1052 "stk500boot.c" 1
 2129 0a6e 0000      		nop
 2130               	 ;  0 "" 2
 2131               	.LM367:
 2132               	/* #NOAPP */
 2133 0a70 8091 C000 		lds r24,192
 2134 0a74 8D7F      		andi r24,lo8(-3)
 2135 0a76 8093 C000 		sts 192,r24
 2136               	.LM368:
 2137 0a7a 81E1      		ldi r24,lo8(17)
 2138               	/* #APP */
 2139               	 ;  1059 "stk500boot.c" 1
 2140 0a7c 8093 5700 		sts 87, r24
 2141 0a80 E895      		spm
 2142               		
 2143               	 ;  0 "" 2
 2144               	.LM369:
 2145               	 ;  1062 "stk500boot.c" 1
 2146 0a82 EE27      		clr	r30		
 2147 0a84 FF27      		clr	r31		
 2148 0a86 0994      		ijmp	
 2149               		
 2150               	 ;  0 "" 2
 2151               	/* #NOAPP */
 2152               	.L99:
 2153 0a88 00C0      		rjmp .L99
 2154               	.LVL178:
 2155               	.L151:
 2156               	.LM370:
 2157 0a8a 8BE1      		ldi r24,lo8(27)
 2158 0a8c 882E      		mov r8,r24
 2159               	.LM371:
 2160 0a8e 81E0      		ldi r24,lo8(1)
 2161 0a90 00C0      		rjmp .L47
 2162               	.L103:
 2163               	.LM372:
 2164 0a92 80E0      		ldi r24,lo8(0)
 2165 0a94 00C0      		rjmp .L47
 2166               	.LVL179:
 2167               	.L152:
 2168               	.LM373:
 2169 0a96 86E0      		ldi r24,lo8(6)
 2170               	.LVL180:
 2171 0a98 00C0      		rjmp .L47
 2172               	.LFE18:
 2174               		.data
 2177               	speedoino_data:
 2178 0000 F8        		.byte	-8
 2179 0001 80        		.byte	-128
 2180 0002 E0        		.byte	-32
 2181 0003 80        		.byte	-128
 2182 0004 80        		.byte	-128
 2183 0005 F8        		.byte	-8
 2184 0006 F0        		.byte	-16
 2185 0007 88        		.byte	-120
 2186 0008 88        		.byte	-120
 2187 0009 88        		.byte	-120
 2188 000a 88        		.byte	-120
 2189 000b F0        		.byte	-16
 2190 000c F8        		.byte	-8
 2191 000d 20        		.byte	32
 2192 000e 20        		.byte	32
 2193 000f 20        		.byte	32
 2194 0010 20        		.byte	32
 2195 0011 F8        		.byte	-8
 2196 0012 88        		.byte	-120
 2197 0013 C8        		.byte	-56
 2198 0014 A8        		.byte	-88
 2199 0015 98        		.byte	-104
 2200 0016 88        		.byte	-120
 2201 0017 88        		.byte	-120
 2202 0018 F8        		.byte	-8
 2203 0019 88        		.byte	-120
 2204 001a 88        		.byte	-120
 2205 001b 88        		.byte	-120
 2206 001c 88        		.byte	-120
 2207 001d F8        		.byte	-8
 2208 001e F8        		.byte	-8
 2209 001f 80        		.byte	-128
 2210 0020 F8        		.byte	-8
 2211 0021 08        		.byte	8
 2212 0022 08        		.byte	8
 2213 0023 F8        		.byte	-8
 2214 0024 F0        		.byte	-16
 2215 0025 88        		.byte	-120
 2216 0026 F8        		.byte	-8
 2217 0027 80        		.byte	-128
 2218 0028 80        		.byte	-128
 2219 0029 80        		.byte	-128
 2222               	CSWTCH.7:
 2223 002a 00        		.byte	0
 2224 002b 00        		.byte	0
 2225 002c 00        		.byte	0
 2226 002d 00        		.byte	0
 2227 002e 00        		.byte	0
 2228 002f 00        		.byte	0
 2229 0030 00        		.byte	0
 2230 0031 00        		.byte	0
 2231 0032 00        		.byte	0
 2232 0033 00        		.byte	0
 2233 0034 00        		.byte	0
 2234 0035 00        		.byte	0
 2235 0036 00        		.byte	0
 2236 0037 00        		.byte	0
 2237 0038 00        		.byte	0
 2238 0039 00        		.byte	0
 2239 003a 0F        		.byte	15
 2240 003b 02        		.byte	2
 2241 003c 0A        		.byte	10
 2322               	.Letext0:
DEFINED SYMBOLS
                            *ABS*:0000000000000000 stk500boot.c
     /tmp/ccyhvJR7.s:2      *ABS*:000000000000003f __SREG__
     /tmp/ccyhvJR7.s:3      *ABS*:000000000000003e __SP_H__
     /tmp/ccyhvJR7.s:4      *ABS*:000000000000003d __SP_L__
     /tmp/ccyhvJR7.s:5      *ABS*:0000000000000034 __CCP__
     /tmp/ccyhvJR7.s:6      *ABS*:0000000000000000 __tmp_reg__
     /tmp/ccyhvJR7.s:7      *ABS*:0000000000000001 __zero_reg__
     /tmp/ccyhvJR7.s:17     .text:0000000000000000 sendchar
     /tmp/ccyhvJR7.s:43     .text:0000000000000018 senden_spi
     /tmp/ccyhvJR7.s:93     .text:000000000000003c send_command
     /tmp/ccyhvJR7.s:114    .text:0000000000000046 send_char
     /tmp/ccyhvJR7.s:133    .text:000000000000004e draw_line.clone.0
     /tmp/ccyhvJR7.s:193    .init9:0000000000000000 __jumpMain
     /tmp/ccyhvJR7.s:203    *ABS*:00000000000021ff __stack
     /tmp/ccyhvJR7.s:282    .text:00000000000000b2 main
     /tmp/ccyhvJR7.s:241    .text:0000000000000094 delay_ms
     /tmp/ccyhvJR7.s:2177   .data:0000000000000000 speedoino_data
     /tmp/ccyhvJR7.s:2222   .data:000000000000002a CSWTCH.7

UNDEFINED SYMBOLS
__mulsi3
__udivmodsi4
__do_copy_data
