   1               		.file	"stk500boot.c"
   2               	__SREG__ = 0x3f
   3               	__SP_H__ = 0x3e
   4               	__SP_L__ = 0x3d
   5               	__CCP__ = 0x34
   6               	__tmp_reg__ = 0
   7               	__zero_reg__ = 1
  15               	.Ltext0:
  17               	sendchar:
  18               	.LFB8:
  19               	.LM1:
  20               	.LVL0:
  21               	/* prologue: function */
  22               	/* frame size = 0 */
  23               	/* stack size = 0 */
  24               	.L__stack_usage = 0
  25               	.LM2:
  26 0000 8093 C600 		sts 198,r24
  27               	.LVL1:
  28               	.L2:
  29               	.LM3:
  30 0004 8091 C000 		lds r24,192
  31 0008 86FF      		sbrs r24,6
  32 000a 00C0      		rjmp .L2
  33               	.LM4:
  34 000c 8091 C000 		lds r24,192
  35 0010 8064      		ori r24,lo8(64)
  36 0012 8093 C000 		sts 192,r24
  37               	/* epilogue start */
  38               	.LM5:
  39 0016 0895      		ret
  40               	.LFE8:
  42               		.section	.init9,"ax",@progbits
  43               	.global	__jumpMain
  45               	__jumpMain:
  46               	.LFB6:
  47               	.LSM0:
  48               	/* prologue: naked */
  49               	/* frame size = 0 */
  50               	/* stack size = 0 */
  51               	.L__stack_usage = 0
  52               	.LSM1:
  53               	/* #APP */
  54               	 ;  222 "stk500boot.c" 1
  55               		.set __stack, 8703
  56               	 ;  0 "" 2
  57               	.LSM2:
  58               	 ;  224 "stk500boot.c" 1
  59 0000 01E2      		ldi	16, 33
  60               	 ;  0 "" 2
  61               	.LSM3:
  62               	 ;  225 "stk500boot.c" 1
  63 0002 0EBF      		out 62,16
  64               	 ;  0 "" 2
  65               	.LSM4:
  66               	 ;  226 "stk500boot.c" 1
  67 0004 0FEF      		ldi	16, 255
  68               	 ;  0 "" 2
  69               	.LSM5:
  70               	 ;  227 "stk500boot.c" 1
  71 0006 0DBF      		out 61,16
  72               	 ;  0 "" 2
  73               	.LSM6:
  74               	 ;  228 "stk500boot.c" 1
  75 0008 1124      		clr __zero_reg__
  76               	 ;  0 "" 2
  77               	.LSM7:
  78               	 ;  229 "stk500boot.c" 1
  79 000a 1FBE      		out 63, __zero_reg__
  80               	 ;  0 "" 2
  81               	.LSM8:
  82               	 ;  230 "stk500boot.c" 1
  83 000c 0C94 0000 		jmp main
  84               	 ;  0 "" 2
  85               	/* epilogue start */
  86               	.LSM9:
  87               	/* #NOAPP */
  88               	.LFE6:
  90               		.text
  91               	.global	delay_ms
  93               	delay_ms:
  94               	.LFB7:
  95               	.LM6:
  96               	.LVL2:
  97               	/* prologue: function */
  98               	/* frame size = 0 */
  99               	/* stack size = 0 */
 100               	.L__stack_usage = 0
 101               	.LM7:
 102 0018 20E0      		ldi r18,lo8(0)
 103 001a 30E0      		ldi r19,hi8(0)
 104 001c 00C0      		rjmp .L6
 105               	.LVL3:
 106               	.L7:
 107               	.LBB29:
 108               	.LBB30:
 109               	.LM8:
 110 001e EFEC      		 ldi r30,lo8(1999)
 111 0020 F7E0      	    ldi r31,hi8(1999)
 112 0022 3197      	    1:sbiw r30,1
 113 0024 01F4      	    brne 1b
 114 0026 00C0      		rjmp .
 115 0028 0000      		nop
 116               	.LBE30:
 117               	.LBE29:
 118               	.LM9:
 119 002a 2F5F      		subi r18,lo8(-(1))
 120 002c 3F4F      		sbci r19,hi8(-(1))
 121               	.LVL4:
 122               	.L6:
 123               	.LM10:
 124 002e 2817      		cp r18,r24
 125 0030 3907      		cpc r19,r25
 126 0032 00F0      		brlo .L7
 127               	/* epilogue start */
 128               	.LM11:
 129 0034 0895      		ret
 130               	.LFE7:
 132               	.global	main
 134               	main:
 135               	.LFB11:
 136               	.LM12:
 137 0036 2F92      		push r2
 138 0038 3F92      		push r3
 139 003a 4F92      		push r4
 140 003c 5F92      		push r5
 141 003e 6F92      		push r6
 142 0040 7F92      		push r7
 143 0042 8F92      		push r8
 144 0044 9F92      		push r9
 145 0046 AF92      		push r10
 146 0048 BF92      		push r11
 147 004a CF92      		push r12
 148 004c DF92      		push r13
 149 004e EF92      		push r14
 150 0050 FF92      		push r15
 151 0052 0F93      		push r16
 152 0054 1F93      		push r17
 153 0056 DF93      		push r29
 154 0058 CF93      		push r28
 155 005a CDB7      		in r28,__SP_L__
 156 005c DEB7      		in r29,__SP_H__
 157 005e C752      		subi r28,lo8(-(-295))
 158 0060 D140      		sbci r29,hi8(-(-295))
 159 0062 0FB6      		in __tmp_reg__,__SREG__
 160 0064 F894      		cli
 161 0066 DEBF      		out __SP_H__,r29
 162 0068 0FBE      		out __SREG__,__tmp_reg__
 163 006a CDBF      		out __SP_L__,r28
 164               	/* prologue: function */
 165               	/* frame size = 295 */
 166               	/* stack size = 313 */
 167               	.L__stack_usage = 313
 168               	.LVL5:
 169               	.LM13:
 170 006c 0998      		cbi 33-32,1
 171               	.LM14:
 172 006e 119A      		sbi 34-32,1
 173               	.LVL6:
 174               	.LM15:
 175 0070 8091 C000 		lds r24,192
 176 0074 8260      		ori r24,lo8(2)
 177 0076 8093 C000 		sts 192,r24
 178               	.LM16:
 179 007a 80E1      		ldi r24,lo8(16)
 180 007c 8093 C400 		sts 196,r24
 181               	.LM17:
 182 0080 88E1      		ldi r24,lo8(24)
 183 0082 8093 C100 		sts 193,r24
 184               	.LM18:
 185               	/* #APP */
 186               	 ;  341 "stk500boot.c" 1
 187 0086 0000      		nop
 188               	 ;  0 "" 2
 189               	.LVL7:
 190               	/* #NOAPP */
 191               	.LBB31:
 192               	.LBB32:
 193               	.LM19:
 194 0088 8FE3      		 ldi r24,lo8(7999)
 195 008a 9FE1      	    ldi r25,hi8(7999)
 196 008c 0197      	    1:sbiw r24,1
 197 008e 01F4      	    brne 1b
 198 0090 00C0      		rjmp .
 199 0092 0000      		nop
 200               	.LVL8:
 201               	.LBE32:
 202               	.LBE31:
 203               	.LM20:
 204 0094 1A82      		std Y+2,__zero_reg__
 205               	.LM21:
 206 0096 88E0      		ldi r24,lo8(8)
 207 0098 8B83      		std Y+3,r24
 208               	.LM22:
 209 009a 81E4      		ldi r24,lo8(65)
 210 009c 8C83      		std Y+4,r24
 211               	.LM23:
 212 009e 86E5      		ldi r24,lo8(86)
 213 00a0 8D83      		std Y+5,r24
 214               	.LM24:
 215 00a2 82E5      		ldi r24,lo8(82)
 216 00a4 8E83      		std Y+6,r24
 217               	.LM25:
 218 00a6 89E4      		ldi r24,lo8(73)
 219 00a8 8F83      		std Y+7,r24
 220               	.LM26:
 221 00aa 83E5      		ldi r24,lo8(83)
 222 00ac 8887      		std Y+8,r24
 223               	.LM27:
 224 00ae 80E5      		ldi r24,lo8(80)
 225 00b0 8987      		std Y+9,r24
 226               	.LM28:
 227 00b2 8FE5      		ldi r24,lo8(95)
 228 00b4 8A87      		std Y+10,r24
 229               	.LM29:
 230 00b6 82E3      		ldi r24,lo8(50)
 231 00b8 8B87      		std Y+11,r24
 232               	.LM30:
 233 00ba 8BE1      		ldi r24,lo8(27)
 234 00bc 0E94 0000 		call sendchar
 235               	.LVL9:
 236               	.LM31:
 237 00c0 81E0      		ldi r24,lo8(1)
 238 00c2 0E94 0000 		call sendchar
 239               	.LVL10:
 240               	.LM32:
 241 00c6 80E0      		ldi r24,lo8(0)
 242 00c8 0E94 0000 		call sendchar
 243               	.LVL11:
 244               	.LM33:
 245 00cc 8BE0      		ldi r24,lo8(11)
 246 00ce 0E94 0000 		call sendchar
 247               	.LVL12:
 248               	.LM34:
 249 00d2 8EE0      		ldi r24,lo8(14)
 250 00d4 0E94 0000 		call sendchar
 251               	.LVL13:
 252               	.LM35:
 253 00d8 8E01      		movw r16,r28
 254 00da 045F      		subi r16,lo8(-(12))
 255 00dc 1F4F      		sbci r17,hi8(-(12))
 256               	.LM36:
 257 00de 7E01      		movw r14,r28
 258 00e0 0894      		sec
 259 00e2 E11C      		adc r14,__zero_reg__
 260 00e4 F11C      		adc r15,__zero_reg__
 261               	.LM37:
 262 00e6 9FE1      		ldi r25,lo8(31)
 263 00e8 892E      		mov r8,r25
 264               	.LVL14:
 265               	.L9:
 266               	.LM38:
 267 00ea F701      		movw r30,r14
 268 00ec C190      		ld r12,Z+
 269 00ee 7F01      		movw r14,r30
 270               	.LVL15:
 271               	.LM39:
 272 00f0 8C2D      		mov r24,r12
 273 00f2 0E94 0000 		call sendchar
 274               	.LVL16:
 275               	.LM40:
 276 00f6 8C24      		eor r8,r12
 277               	.LVL17:
 278               	.LM41:
 279 00f8 E016      		cp r14,r16
 280 00fa F106      		cpc r15,r17
 281 00fc 01F4      		brne .L9
 282               	.LM42:
 283 00fe 882D      		mov r24,r8
 284 0100 0E94 0000 		call sendchar
 285               	.LVL18:
 286               	.LM43:
 287 0104 80E0      		ldi r24,lo8(0)
 288 0106 90E0      		ldi r25,hi8(0)
 289 0108 DC01      		movw r26,r24
 290 010a 00C0      		rjmp .L107
 291               	.LVL19:
 292               	.L14:
 293               	.LBB33:
 294               	.LBB34:
 295               	.LM44:
 296 010c F5E0      		 ldi r31,lo8(5)
 297 010e FA95      	    1:dec r31
 298 0110 01F4      	    brne 1b
 299 0112 0000      		nop
 300               	.LBE34:
 301               	.LBE33:
 302               	.LM45:
 303 0114 019B      		sbis 32-32,1
 304 0116 00C0      		rjmp .L11
 305               	.LM46:
 306 0118 0196      		adiw r24,1
 307 011a A11D      		adc r26,__zero_reg__
 308 011c B11D      		adc r27,__zero_reg__
 309               	.LVL20:
 310               	.L11:
 311               	.LM47:
 312 011e 21E0      		ldi r18,lo8(1)
 313 0120 30E0      		ldi r19,hi8(1)
 314               	.LVL21:
 315 0122 8139      		cpi r24,lo8(250001)
 316 0124 40ED      		ldi r20,hi8(250001)
 317 0126 9407      		cpc r25,r20
 318 0128 43E0      		ldi r20,hlo8(250001)
 319 012a A407      		cpc r26,r20
 320 012c 40E0      		ldi r20,hhi8(250001)
 321 012e B407      		cpc r27,r20
 322 0130 00F4      		brsh .L103
 323               	.LVL22:
 324               	.L107:
 325 0132 20E0      		ldi r18,lo8(0)
 326 0134 30E0      		ldi r19,hi8(0)
 327               	.L103:
 328               	.LVL23:
 329               	.LBB35:
 330               	.LBB36:
 331               	.LM48:
 332 0136 4091 C000 		lds r20,192
 333               	.LBE36:
 334               	.LBE35:
 335               	.LM49:
 336 013a 47FD      		sbrc r20,7
 337 013c 00C0      		rjmp .L13
 338               	.LM50:
 339 013e 2115      		cp r18,__zero_reg__
 340 0140 3105      		cpc r19,__zero_reg__
 341 0142 01F0      		breq .L14
 342               	.L13:
 343               	.LVL24:
 344               	.LM51:
 345 0144 2F5F      		subi r18,lo8(-(1))
 346 0146 3F4F      		sbci r19,hi8(-(1))
 347               	.LVL25:
 348               	.LM52:
 349 0148 2130      		cpi r18,1
 350 014a 3105      		cpc r19,__zero_reg__
 351 014c 01F0      		breq .+2
 352 014e 00C0      		rjmp .L17
 353               	.LM53:
 354 0150 4424      		clr r4
 355 0152 5524      		clr r5
 356 0154 3201      		movw r6,r4
 357 0156 EE24      		clr r14
 358 0158 FF24      		clr r15
 359 015a 8701      		movw r16,r14
 360               	.LVL26:
 361 015c 82E0      		ldi r24,lo8(2)
 362 015e 982E      		mov r9,r24
 363 0160 2224      		clr r2
 364 0162 3324      		clr r3
 365               	.LBB37:
 366               	.LBB38:
 367               	.LBB39:
 368               	.LBB40:
 369               	.LM54:
 370               	/* #APP */
 371               	 ;  280 "stk500boot.c" 1
 372 0164 6BBE      		out 59, r6
 373 0166 F201      		movw r30, r4
 374 0168 8791      		elpm r24, Z+
 375 016a 9691      		elpm r25, Z
 376               		
 377               	 ;  0 "" 2
 378               	/* #NOAPP */
 379 016c CC5D      		subi r28,lo8(-292)
 380 016e DE4F      		sbci r29,hi8(-292)
 381 0170 9983      		std Y+1,r25
 382 0172 8883      		st Y,r24
 383 0174 C452      		subi r28,lo8(292)
 384 0176 D140      		sbci r29,hi8(292)
 385 0178 00C0      		rjmp .L18
 386               	.LVL27:
 387               	.L36:
 388               	.LBE40:
 389               	.LBE39:
 390               	.LBE38:
 391               	.LBE37:
 392               	.LM55:
 393 017a 20E0      		ldi r18,lo8(0)
 394 017c 30E0      		ldi r19,hi8(0)
 395               	.LVL28:
 396               	.L76:
 397               	.LM56:
 398 017e 2130      		cpi r18,1
 399 0180 3105      		cpc r19,__zero_reg__
 400 0182 01F4      		brne .L78
 401 0184 00C0      		rjmp .L108
 402               	.LVL29:
 403               	.L23:
 404               	.LBB43:
 405               	.LBB42:
 406               	.LM57:
 407 0186 2F5F      		subi r18,lo8(-(1))
 408 0188 3F4F      		sbci r19,hi8(-(1))
 409 018a 4F4F      		sbci r20,hlo8(-(1))
 410 018c 5F4F      		sbci r21,hhi8(-(1))
 411               	.LVL30:
 412               	.LM58:
 413 018e 2130      		cpi r18,lo8(8000001)
 414 0190 92E1      		ldi r25,hi8(8000001)
 415 0192 3907      		cpc r19,r25
 416 0194 9AE7      		ldi r25,hlo8(8000001)
 417 0196 4907      		cpc r20,r25
 418 0198 90E0      		ldi r25,hhi8(8000001)
 419 019a 5907      		cpc r21,r25
 420 019c 00F0      		brlo .L104
 421               	.LVL31:
 422               	.LBB41:
 423               	.LM59:
 424 019e CC5D      		subi r28,lo8(-292)
 425 01a0 DE4F      		sbci r29,hi8(-292)
 426 01a2 E881      		ld r30,Y
 427 01a4 F981      		ldd r31,Y+1
 428 01a6 C452      		subi r28,lo8(292)
 429 01a8 D140      		sbci r29,hi8(292)
 430 01aa 2FEF      		ldi r18,hi8(-1)
 431 01ac EF3F      		cpi r30,lo8(-1)
 432 01ae F207      		cpc r31,r18
 433               	.LVL32:
 434 01b0 01F0      		breq .L78
 435               	.LM60:
 436               	/* #APP */
 437               	 ;  286 "stk500boot.c" 1
 438 01b2 EE27      		clr	r30		
 439 01b4 FF27      		clr	r31		
 440 01b6 0994      		ijmp	
 441               		
 442               	 ;  0 "" 2
 443               	.LVL33:
 444               	/* #NOAPP */
 445               	.L78:
 446               	.LM61:
 447 01b8 20E0      		ldi r18,lo8(0)
 448 01ba 30E0      		ldi r19,hi8(0)
 449 01bc A901      		movw r20,r18
 450               	.L104:
 451               	.LVL34:
 452               	.LBE41:
 453               	.LM62:
 454 01be 9091 C000 		lds r25,192
 455 01c2 97FF      		sbrs r25,7
 456 01c4 00C0      		rjmp .L23
 457               	.LVL35:
 458               	.L108:
 459               	.LM63:
 460 01c6 2091 C600 		lds r18,198
 461               	.LVL36:
 462               	.LBE42:
 463               	.LBE43:
 464               	.LM64:
 465 01ca 8330      		cpi r24,lo8(3)
 466 01cc 01F0      		breq .L28
 467 01ce 8430      		cpi r24,lo8(4)
 468 01d0 00F4      		brsh .L32
 469 01d2 8130      		cpi r24,lo8(1)
 470 01d4 01F0      		breq .L26
 471 01d6 8230      		cpi r24,lo8(2)
 472 01d8 00F4      		brsh .L27
 473 01da 00C0      		rjmp .L116
 474               	.L32:
 475 01dc 8530      		cpi r24,lo8(5)
 476 01de 01F0      		breq .L30
 477 01e0 8530      		cpi r24,lo8(5)
 478 01e2 00F0      		brlo .L29
 479 01e4 8630      		cpi r24,lo8(6)
 480 01e6 01F4      		brne .L106
 481 01e8 00C0      		rjmp .L117
 482               	.L116:
 483               	.LM65:
 484 01ea 2B31      		cpi r18,lo8(27)
 485 01ec 01F4      		brne .L36
 486 01ee 00C0      		rjmp .L118
 487               	.L26:
 488               	.LM66:
 489 01f0 2130      		cpi r18,lo8(1)
 490 01f2 01F0      		breq .L34
 491               	.LM67:
 492 01f4 2915      		cp r18,r9
 493 01f6 01F0      		breq .+2
 494 01f8 00C0      		rjmp .L81
 495               	.L34:
 496               	.LVL37:
 497               	.LM68:
 498 01fa 8226      		eor r8,r18
 499               	.LVL38:
 500 01fc 922E      		mov r9,r18
 501               	.LM69:
 502 01fe 82E0      		ldi r24,lo8(2)
 503               	.LM70:
 504 0200 00C0      		rjmp .L36
 505               	.LVL39:
 506               	.L27:
 507               	.LM71:
 508 0202 722F      		mov r23,r18
 509 0204 60E0      		ldi r22,lo8(0)
 510               	.LVL40:
 511               	.LM72:
 512 0206 8226      		eor r8,r18
 513               	.LVL41:
 514               	.LM73:
 515 0208 83E0      		ldi r24,lo8(3)
 516               	.LM74:
 517 020a 00C0      		rjmp .L36
 518               	.LVL42:
 519               	.L28:
 520               	.LM75:
 521 020c 822F      		mov r24,r18
 522 020e 90E0      		ldi r25,lo8(0)
 523 0210 682B      		or r22,r24
 524 0212 792B      		or r23,r25
 525               	.LVL43:
 526               	.LM76:
 527 0214 8226      		eor r8,r18
 528               	.LVL44:
 529               	.LM77:
 530 0216 84E0      		ldi r24,lo8(4)
 531               	.LM78:
 532 0218 00C0      		rjmp .L36
 533               	.LVL45:
 534               	.L29:
 535               	.LM79:
 536 021a 2E30      		cpi r18,lo8(14)
 537 021c 01F0      		breq .+2
 538 021e 00C0      		rjmp .L81
 539               	.LVL46:
 540               	.LM80:
 541 0220 8226      		eor r8,r18
 542               	.LVL47:
 543               	.LM81:
 544 0222 2224      		clr r2
 545 0224 3324      		clr r3
 546               	.LM82:
 547 0226 85E0      		ldi r24,lo8(5)
 548 0228 00C0      		rjmp .L36
 549               	.LVL48:
 550               	.L30:
 551               	.LM83:
 552 022a E1E0      		ldi r30,lo8(1)
 553 022c F0E0      		ldi r31,hi8(1)
 554 022e EC0F      		add r30,r28
 555 0230 FD1F      		adc r31,r29
 556 0232 E20D      		add r30,r2
 557 0234 F31D      		adc r31,r3
 558 0236 2083      		st Z,r18
 559 0238 0894      		sec
 560 023a 211C      		adc r2,__zero_reg__
 561 023c 311C      		adc r3,__zero_reg__
 562               	.LVL49:
 563               	.LM84:
 564 023e 8226      		eor r8,r18
 565               	.LVL50:
 566               	.LM85:
 567 0240 2616      		cp r2,r22
 568 0242 3706      		cpc r3,r23
 569 0244 01F0      		breq .+2
 570 0246 00C0      		rjmp .L36
 571 0248 00C0      		rjmp .L119
 572               	.LVL51:
 573               	.L117:
 574               	.LM86:
 575 024a 2815      		cp r18,r8
 576 024c 01F0      		breq .+2
 577 024e 00C0      		rjmp .L81
 578 0250 00C0      		rjmp .L35
 579               	.L106:
 580               	.LVL52:
 581               	.LM87:
 582 0252 8730      		cpi r24,lo8(7)
 583 0254 01F0      		breq .+2
 584 0256 00C0      		rjmp .L36
 585               	.LVL53:
 586               	.L35:
 587               	.LM88:
 588 0258 4981      		ldd r20,Y+1
 589 025a 4331      		cpi r20,lo8(19)
 590 025c 01F4      		brne .+2
 591 025e 00C0      		rjmp .L44
 592 0260 4431      		cpi r20,lo8(20)
 593 0262 00F4      		brsh .L51
 594 0264 4630      		cpi r20,lo8(6)
 595 0266 01F4      		brne .+2
 596 0268 00C0      		rjmp .L41
 597 026a 4730      		cpi r20,lo8(7)
 598 026c 00F4      		brsh .L52
 599 026e 4230      		cpi r20,lo8(2)
 600 0270 01F0      		breq .L39
 601 0272 4330      		cpi r20,lo8(3)
 602 0274 01F4      		brne .+2
 603 0276 00C0      		rjmp .L40
 604 0278 4130      		cpi r20,lo8(1)
 605 027a 01F0      		breq .+2
 606 027c 00C0      		rjmp .L37
 607 027e 00C0      		rjmp .L120
 608               	.L52:
 609 0280 4131      		cpi r20,lo8(17)
 610 0282 01F4      		brne .+2
 611 0284 00C0      		rjmp .L83
 612 0286 4231      		cpi r20,lo8(18)
 613 0288 00F0      		brlo .+2
 614 028a 00C0      		rjmp .L43
 615 028c 4031      		cpi r20,lo8(16)
 616 028e 01F0      		breq .+2
 617 0290 00C0      		rjmp .L37
 618 0292 00C0      		rjmp .L39
 619               	.L51:
 620 0294 4831      		cpi r20,lo8(24)
 621 0296 01F4      		brne .+2
 622 0298 00C0      		rjmp .L46
 623 029a 4931      		cpi r20,lo8(25)
 624 029c 00F4      		brsh .L53
 625 029e 4531      		cpi r20,lo8(21)
 626 02a0 01F4      		brne .+2
 627 02a2 00C0      		rjmp .L44
 628 02a4 4531      		cpi r20,lo8(21)
 629 02a6 00F4      		brsh .+2
 630 02a8 00C0      		rjmp .L45
 631 02aa 4631      		cpi r20,lo8(22)
 632 02ac 01F0      		breq .+2
 633 02ae 00C0      		rjmp .L37
 634 02b0 00C0      		rjmp .L45
 635               	.L53:
 636 02b2 4A31      		cpi r20,lo8(26)
 637 02b4 01F4      		brne .+2
 638 02b6 00C0      		rjmp .L48
 639 02b8 4A31      		cpi r20,lo8(26)
 640 02ba 00F4      		brsh .+2
 641 02bc 00C0      		rjmp .L47
 642 02be 4B31      		cpi r20,lo8(27)
 643 02c0 01F4      		brne .+2
 644 02c2 00C0      		rjmp .L49
 645 02c4 4D31      		cpi r20,lo8(29)
 646 02c6 01F0      		breq .+2
 647 02c8 00C0      		rjmp .L37
 648 02ca 00C0      		rjmp .L121
 649               	.L39:
 650 02cc 90E0      		ldi r25,lo8(0)
 651 02ce 00C0      		rjmp .L42
 652               	.L121:
 653               	.LVL54:
 654               	.LBB44:
 655               	.LM89:
 656 02d0 9D81      		ldd r25,Y+5
 657 02d2 9033      		cpi r25,lo8(48)
 658 02d4 01F4      		brne .L84
 659               	.LBB45:
 660               	.LM90:
 661 02d6 8F81      		ldd r24,Y+7
 662               	.LVL55:
 663               	.LM91:
 664 02d8 8823      		tst r24
 665 02da 01F0      		breq .L85
 666               	.LM92:
 667 02dc 8130      		cpi r24,lo8(1)
 668 02de 01F4      		brne .L86
 669               	.LM93:
 670 02e0 88E9      		ldi r24,lo8(-104)
 671 02e2 00C0      		rjmp .L54
 672               	.LVL56:
 673               	.L84:
 674               	.LBE45:
 675               	.LM94:
 676 02e4 80E0      		ldi r24,lo8(0)
 677 02e6 00C0      		rjmp .L54
 678               	.LVL57:
 679               	.L85:
 680               	.LBB46:
 681               	.LM95:
 682 02e8 8EE1      		ldi r24,lo8(30)
 683               	.LVL58:
 684 02ea 00C0      		rjmp .L54
 685               	.L86:
 686               	.LM96:
 687 02ec 81E0      		ldi r24,lo8(1)
 688               	.LVL59:
 689               	.L54:
 690               	.LBE46:
 691               	.LM97:
 692 02ee 1A82      		std Y+2,__zero_reg__
 693               	.LM98:
 694 02f0 1B82      		std Y+3,__zero_reg__
 695               	.LM99:
 696 02f2 9C83      		std Y+4,r25
 697               	.LM100:
 698 02f4 1D82      		std Y+5,__zero_reg__
 699               	.LM101:
 700 02f6 8E83      		std Y+6,r24
 701               	.LM102:
 702 02f8 1F82      		std Y+7,__zero_reg__
 703 02fa 90E0      		ldi r25,lo8(0)
 704               	.LM103:
 705 02fc B7E0      		ldi r27,lo8(7)
 706 02fe CB2E      		mov r12,r27
 707 0300 D12C      		mov r13,__zero_reg__
 708 0302 00C0      		rjmp .L55
 709               	.LVL60:
 710               	.L120:
 711               	.LBE44:
 712               	.LM104:
 713 0304 1A82      		std Y+2,__zero_reg__
 714               	.LM105:
 715 0306 88E0      		ldi r24,lo8(8)
 716 0308 8B83      		std Y+3,r24
 717               	.LM106:
 718 030a 81E4      		ldi r24,lo8(65)
 719 030c 8C83      		std Y+4,r24
 720               	.LM107:
 721 030e 86E5      		ldi r24,lo8(86)
 722 0310 8D83      		std Y+5,r24
 723               	.LM108:
 724 0312 82E5      		ldi r24,lo8(82)
 725 0314 8E83      		std Y+6,r24
 726               	.LM109:
 727 0316 89E4      		ldi r24,lo8(73)
 728 0318 8F83      		std Y+7,r24
 729               	.LM110:
 730 031a 83E5      		ldi r24,lo8(83)
 731 031c 8887      		std Y+8,r24
 732               	.LM111:
 733 031e 80E5      		ldi r24,lo8(80)
 734 0320 8987      		std Y+9,r24
 735               	.LM112:
 736 0322 8FE5      		ldi r24,lo8(95)
 737 0324 8A87      		std Y+10,r24
 738               	.LM113:
 739 0326 82E3      		ldi r24,lo8(50)
 740 0328 8B87      		std Y+11,r24
 741               	.LM114:
 742 032a 90E0      		ldi r25,lo8(0)
 743               	.LM115:
 744 032c ABE0      		ldi r26,lo8(11)
 745 032e CA2E      		mov r12,r26
 746 0330 D12C      		mov r13,__zero_reg__
 747               	.LM116:
 748 0332 00C0      		rjmp .L55
 749               	.LVL61:
 750               	.L40:
 751               	.LBB47:
 752               	.LM117:
 753 0334 EA81      		ldd r30,Y+2
 754 0336 E058      		subi r30,lo8(-(-128))
 755 0338 E331      		cpi r30,lo8(19)
 756 033a 00F4      		brsh .L87
 757 033c F0E0      		ldi r31,lo8(0)
 758 033e E050      		subi r30,lo8(-(CSWTCH.6))
 759 0340 F040      		sbci r31,hi8(-(CSWTCH.6))
 760 0342 8081      		ld r24,Z
 761 0344 00C0      		rjmp .L56
 762               	.L87:
 763 0346 80E0      		ldi r24,lo8(0)
 764               	.L56:
 765               	.LVL62:
 766               	.LM118:
 767 0348 1A82      		std Y+2,__zero_reg__
 768               	.LM119:
 769 034a 8B83      		std Y+3,r24
 770 034c 00C0      		rjmp .L110
 771               	.LVL63:
 772               	.L83:
 773               	.LBE47:
 774               	.LM120:
 775 034e 91E0      		ldi r25,lo8(1)
 776               	.L42:
 777               	.LVL64:
 778               	.LM121:
 779 0350 1A82      		std Y+2,__zero_reg__
 780 0352 00C0      		rjmp .L111
 781               	.LVL65:
 782               	.L49:
 783               	.LBB48:
 784               	.LM122:
 785 0354 8D81      		ldd r24,Y+5
 786               	.LVL66:
 787               	.LM123:
 788 0356 8823      		tst r24
 789 0358 01F0      		breq .L88
 790               	.LM124:
 791 035a 8130      		cpi r24,lo8(1)
 792 035c 01F4      		brne .L89
 793               	.LM125:
 794 035e 88E9      		ldi r24,lo8(-104)
 795 0360 00C0      		rjmp .L114
 796               	.L88:
 797               	.LM126:
 798 0362 8EE1      		ldi r24,lo8(30)
 799 0364 00C0      		rjmp .L114
 800               	.L89:
 801               	.LM127:
 802 0366 81E0      		ldi r24,lo8(1)
 803               	.LVL67:
 804 0368 00C0      		rjmp .L114
 805               	.LVL68:
 806               	.L48:
 807               	.LBE48:
 808               	.LM128:
 809 036a 1A82      		std Y+2,__zero_reg__
 810               	.LBB49:
 811               	.LM129:
 812 036c E1E0      		ldi r30,lo8(1)
 813 036e F0E0      		ldi r31,hi8(1)
 814 0370 89E0      		ldi r24,lo8(9)
 815               	/* #APP */
 816               	 ;  616 "stk500boot.c" 1
 817 0372 8093 5700 		sts 87, r24
 818 0376 E491      		lpm r30, Z
 819               		
 820               	 ;  0 "" 2
 821               	.LVL69:
 822               	/* #NOAPP */
 823               	.LBE49:
 824 0378 EB83      		std Y+3,r30
 825               	.LVL70:
 826               	.L112:
 827               	.LM130:
 828 037a 1C82      		std Y+4,__zero_reg__
 829               	.LM131:
 830 037c 90E0      		ldi r25,lo8(0)
 831               	.LM132:
 832 037e F4E0      		ldi r31,lo8(4)
 833 0380 CF2E      		mov r12,r31
 834 0382 D12C      		mov r13,__zero_reg__
 835               	.LM133:
 836 0384 00C0      		rjmp .L55
 837               	.LVL71:
 838               	.L46:
 839               	.LBB50:
 840               	.LM134:
 841 0386 8B81      		ldd r24,Y+3
 842 0388 8035      		cpi r24,lo8(80)
 843 038a 01F4      		brne .L58
 844               	.LM135:
 845 038c 8C81      		ldd r24,Y+4
 846 038e 8830      		cpi r24,lo8(8)
 847 0390 01F4      		brne .L59
 848               	.LBB52:
 849               	.LM136:
 850 0392 89E0      		ldi r24,lo8(9)
 851 0394 E2E0      		ldi r30,lo8(2)
 852 0396 F0E0      		ldi r31,hi8(2)
 853 0398 00C0      		rjmp .L109
 854               	.L59:
 855               	.LBE52:
 856               	.LBB53:
 857               	.LM137:
 858 039a 89E0      		ldi r24,lo8(9)
 859 039c E0E0      		ldi r30,lo8(0)
 860 039e F0E0      		ldi r31,hi8(0)
 861 03a0 00C0      		rjmp .L109
 862               	.L58:
 863               	.LBE53:
 864               	.LBB54:
 865               	.LM138:
 866 03a2 E3E0      		ldi r30,lo8(3)
 867 03a4 F0E0      		ldi r31,hi8(3)
 868 03a6 89E0      		ldi r24,lo8(9)
 869               	.L109:
 870               	/* #APP */
 871               	 ;  633 "stk500boot.c" 1
 872 03a8 8093 5700 		sts 87, r24
 873 03ac 8491      		lpm r24, Z
 874               		
 875               	 ;  0 "" 2
 876               	/* #NOAPP */
 877               	.L114:
 878               	.LVL72:
 879               	.LBE54:
 880               	.LM139:
 881 03ae 1A82      		std Y+2,__zero_reg__
 882               	.LM140:
 883 03b0 8B83      		std Y+3,r24
 884 03b2 00C0      		rjmp .L112
 885               	.LVL73:
 886               	.L47:
 887               	.LBE50:
 888               	.LBB56:
 889               	.LM141:
 890 03b4 8D81      		ldd r24,Y+5
 891               	.LVL74:
 892               	.LBB57:
 893               	.LM142:
 894 03b6 836C      		ori r24,lo8(-61)
 895 03b8 99E0      		ldi r25,lo8(9)
 896               	/* #APP */
 897               	 ;  648 "stk500boot.c" 1
 898 03ba E1E0      		ldi r30, 1
 899 03bc F0E0      		ldi r31, 0
 900 03be 082E      		mov r0, r24
 901 03c0 9093 5700 		sts 87, r25
 902 03c4 E895      		spm
 903               		
 904               	 ;  0 "" 2
 905               	/* #NOAPP */
 906               	.L61:
 907               	.LBE57:
 908               	.LM143:
 909 03c6 07B6      		in __tmp_reg__,87-32
 910 03c8 00FC      		sbrc __tmp_reg__,0
 911 03ca 00C0      		rjmp .L61
 912               	.LVL75:
 913               	.LM144:
 914 03cc 1A82      		std Y+2,__zero_reg__
 915               	.LM145:
 916 03ce 1B82      		std Y+3,__zero_reg__
 917               	.LVL76:
 918               	.L110:
 919               	.LBE56:
 920               	.LM146:
 921 03d0 90E0      		ldi r25,lo8(0)
 922               	.LM147:
 923 03d2 E3E0      		ldi r30,lo8(3)
 924 03d4 CE2E      		mov r12,r30
 925 03d6 D12C      		mov r13,__zero_reg__
 926               	.LM148:
 927 03d8 00C0      		rjmp .L55
 928               	.LVL77:
 929               	.L43:
 930               	.LM149:
 931 03da 1A82      		std Y+2,__zero_reg__
 932               	.LM150:
 933 03dc 90E0      		ldi r25,lo8(0)
 934               	.LM151:
 935 03de 72E0      		ldi r23,lo8(2)
 936 03e0 C72E      		mov r12,r23
 937 03e2 D12C      		mov r13,__zero_reg__
 938               	.LM152:
 939 03e4 4424      		clr r4
 940 03e6 5524      		clr r5
 941 03e8 3201      		movw r6,r4
 942               	.LM153:
 943 03ea 00C0      		rjmp .L55
 944               	.LVL78:
 945               	.L41:
 946               	.LM154:
 947 03ec EA80      		ldd r14,Y+2
 948 03ee FF24      		clr r15
 949 03f0 00E0      		ldi r16,lo8(0)
 950 03f2 10E0      		ldi r17,hi8(0)
 951 03f4 1E2D      		mov r17,r14
 952 03f6 0027      		clr r16
 953 03f8 FF24      		clr r15
 954 03fa EE24      		clr r14
 955 03fc 8B81      		ldd r24,Y+3
 956 03fe 90E0      		ldi r25,lo8(0)
 957 0400 A0E0      		ldi r26,lo8(0)
 958 0402 B0E0      		ldi r27,hi8(0)
 959 0404 DC01      		movw r26,r24
 960 0406 9927      		clr r25
 961 0408 8827      		clr r24
 962 040a E82A      		or r14,r24
 963 040c F92A      		or r15,r25
 964 040e 0A2B      		or r16,r26
 965 0410 1B2B      		or r17,r27
 966 0412 8D81      		ldd r24,Y+5
 967 0414 90E0      		ldi r25,lo8(0)
 968 0416 A0E0      		ldi r26,lo8(0)
 969 0418 B0E0      		ldi r27,hi8(0)
 970 041a E82A      		or r14,r24
 971 041c F92A      		or r15,r25
 972 041e 0A2B      		or r16,r26
 973 0420 1B2B      		or r17,r27
 974 0422 8C81      		ldd r24,Y+4
 975 0424 90E0      		ldi r25,lo8(0)
 976 0426 A0E0      		ldi r26,lo8(0)
 977 0428 B0E0      		ldi r27,hi8(0)
 978 042a BA2F      		mov r27,r26
 979 042c A92F      		mov r26,r25
 980 042e 982F      		mov r25,r24
 981 0430 8827      		clr r24
 982 0432 E82A      		or r14,r24
 983 0434 F92A      		or r15,r25
 984 0436 0A2B      		or r16,r26
 985 0438 1B2B      		or r17,r27
 986 043a EE0C      		lsl r14
 987 043c FF1C      		rol r15
 988 043e 001F      		rol r16
 989 0440 111F      		rol r17
 990               	.LVL79:
 991 0442 00C0      		rjmp .L67
 992               	.LVL80:
 993               	.L44:
 994               	.LBB58:
 995               	.LM155:
 996 0444 FA81      		ldd r31,Y+2
 997 0446 C15E      		subi r28,lo8(-287)
 998 0448 DE4F      		sbci r29,hi8(-287)
 999 044a F883      		st Y,r31
 1000 044c CF51      		subi r28,lo8(287)
 1001 044e D140      		sbci r29,hi8(287)
 1002 0450 C25E      		subi r28,lo8(-286)
 1003 0452 DE4F      		sbci r29,hi8(-286)
 1004 0454 1882      		st Y,__zero_reg__
 1005 0456 CE51      		subi r28,lo8(286)
 1006 0458 D140      		sbci r29,hi8(286)
 1007 045a 8B81      		ldd r24,Y+3
 1008 045c 90E0      		ldi r25,lo8(0)
 1009 045e C25E      		subi r28,lo8(-286)
 1010 0460 DE4F      		sbci r29,hi8(-286)
 1011 0462 2881      		ld r18,Y
 1012 0464 3981      		ldd r19,Y+1
 1013 0466 CE51      		subi r28,lo8(286)
 1014 0468 D140      		sbci r29,hi8(286)
 1015               	.LVL81:
 1016 046a 822B      		or r24,r18
 1017 046c 932B      		or r25,r19
 1018               	.LVL82:
 1019               	.LM156:
 1020 046e 4331      		cpi r20,lo8(19)
 1021 0470 01F0      		breq .+2
 1022 0472 00C0      		rjmp .L62
 1023               	.LM157:
 1024 0474 30E0      		ldi r19,lo8(245760)
 1025 0476 4316      		cp r4,r19
 1026 0478 30EC      		ldi r19,hi8(245760)
 1027 047a 5306      		cpc r5,r19
 1028 047c 33E0      		ldi r19,hlo8(245760)
 1029 047e 6306      		cpc r6,r19
 1030 0480 30E0      		ldi r19,hhi8(245760)
 1031 0482 7306      		cpc r7,r19
 1032 0484 00F4      		brsh .L63
 1033               	.LM158:
 1034 0486 43E0      		ldi r20,lo8(3)
 1035               	/* #APP */
 1036               	 ;  688 "stk500boot.c" 1
 1037 0488 F201      		movw r30, r4
 1038 048a 6092 5B00 		sts  91, r6
 1039 048e 4093 5700 		sts 87, r20
 1040 0492 E895      		spm
 1041               		
 1042               	 ;  0 "" 2
 1043               	/* #NOAPP */
 1044               	.L64:
 1045               	.LM159:
 1046 0494 07B6      		in __tmp_reg__,87-32
 1047 0496 00FC      		sbrc __tmp_reg__,0
 1048 0498 00C0      		rjmp .L64
 1049               	.LM160:
 1050 049a 20E0      		ldi r18,lo8(256)
 1051 049c 31E0      		ldi r19,hi8(256)
 1052 049e 40E0      		ldi r20,hlo8(256)
 1053 04a0 50E0      		ldi r21,hhi8(256)
 1054 04a2 420E      		add r4,r18
 1055 04a4 531E      		adc r5,r19
 1056 04a6 641E      		adc r6,r20
 1057 04a8 751E      		adc r7,r21
 1058               	.LVL83:
 1059               	.L63:
 1060               	.LBE58:
 1061               	.LBB59:
 1062               	.LBB51:
 1063               	.LM161:
 1064 04aa B801      		movw r22,r16
 1065 04ac A701      		movw r20,r14
 1066               	.LM162:
 1067 04ae DE01      		movw r26,r28
 1068 04b0 1B96      		adiw r26,11
 1069               	.L65:
 1070               	.LVL84:
 1071               	.LBE51:
 1072               	.LBE59:
 1073               	.LBB60:
 1074               	.LM163:
 1075 04b2 2C91      		ld r18,X
 1076               	.LVL85:
 1077               	.LM164:
 1078 04b4 1196      		adiw r26,1
 1079 04b6 3C91      		ld r19,X
 1080 04b8 1197      		sbiw r26,1
 1081               	.LVL86:
 1082               	.LM165:
 1083 04ba 1296      		adiw r26,2
 1084               	.LVL87:
 1085               	.LM166:
 1086 04bc CF5D      		subi r28,lo8(-289)
 1087 04be DE4F      		sbci r29,hi8(-289)
 1088 04c0 3883      		st Y,r19
 1089 04c2 C152      		subi r28,lo8(289)
 1090 04c4 D140      		sbci r29,hi8(289)
 1091 04c6 C05E      		subi r28,lo8(-288)
 1092 04c8 DE4F      		sbci r29,hi8(-288)
 1093 04ca 1882      		st Y,__zero_reg__
 1094 04cc C052      		subi r28,lo8(288)
 1095 04ce D140      		sbci r29,hi8(288)
 1096 04d0 30E0      		ldi r19,lo8(0)
 1097 04d2 C05E      		subi r28,lo8(-288)
 1098 04d4 DE4F      		sbci r29,hi8(-288)
 1099 04d6 E881      		ld r30,Y
 1100 04d8 F981      		ldd r31,Y+1
 1101 04da C052      		subi r28,lo8(288)
 1102 04dc D140      		sbci r29,hi8(288)
 1103 04de 2E2B      		or r18,r30
 1104 04e0 3F2B      		or r19,r31
 1105               	.LM167:
 1106 04e2 DD24      		clr r13
 1107 04e4 D394      		inc r13
 1108               	/* #APP */
 1109               	 ;  699 "stk500boot.c" 1
 1110 04e6 0901      		movw  r0, r18
 1111 04e8 FA01      		movw r30, r20
 1112 04ea 6093 5B00 		sts 91, r22
 1113 04ee D092 5700 		sts 87, r13
 1114 04f2 E895      		spm
 1115 04f4 1124      		clr  r1
 1116               		
 1117               	 ;  0 "" 2
 1118               	.LM168:
 1119               	/* #NOAPP */
 1120 04f6 4E5F      		subi r20,lo8(-(2))
 1121 04f8 5F4F      		sbci r21,hi8(-(2))
 1122 04fa 6F4F      		sbci r22,hlo8(-(2))
 1123 04fc 7F4F      		sbci r23,hhi8(-(2))
 1124               	.LVL88:
 1125               	.LM169:
 1126 04fe 0297      		sbiw r24,2
 1127               	.LVL89:
 1128               	.LM170:
 1129 0500 01F4      		brne .L65
 1130               	.LM171:
 1131 0502 25E0      		ldi r18,lo8(5)
 1132               	/* #APP */
 1133               	 ;  705 "stk500boot.c" 1
 1134 0504 F701      		movw r30, r14
 1135 0506 0093 5B00 		sts 91, r16
 1136 050a 2093 5700 		sts 87, r18
 1137 050e E895      		spm
 1138               		
 1139               	 ;  0 "" 2
 1140               	/* #NOAPP */
 1141               	.L66:
 1142               	.LM172:
 1143 0510 07B6      		in __tmp_reg__,87-32
 1144 0512 00FC      		sbrc __tmp_reg__,0
 1145 0514 00C0      		rjmp .L66
 1146               	.LM173:
 1147 0516 31E1      		ldi r19,lo8(17)
 1148               	/* #APP */
 1149               	 ;  707 "stk500boot.c" 1
 1150 0518 3093 5700 		sts 87, r19
 1151 051c E895      		spm
 1152               		
 1153               	 ;  0 "" 2
 1154               	.LM174:
 1155               	/* #NOAPP */
 1156 051e 7A01      		movw r14,r20
 1157 0520 8B01      		movw r16,r22
 1158               	.LVL90:
 1159 0522 00C0      		rjmp .L67
 1160               	.LVL91:
 1161               	.L62:
 1162               	.LM175:
 1163 0524 0197      		sbiw r24,1
 1164               	.LVL92:
 1165 0526 A0E0      		ldi r26,lo8(0)
 1166 0528 B0E0      		ldi r27,hi8(0)
 1167 052a 0196      		adiw r24,1
 1168 052c A11D      		adc r26,__zero_reg__
 1169 052e B11D      		adc r27,__zero_reg__
 1170               	.LVL93:
 1171 0530 8E0D      		add r24,r14
 1172 0532 9F1D      		adc r25,r15
 1173 0534 A01F      		adc r26,r16
 1174 0536 B11F      		adc r27,r17
 1175               	.LBE60:
 1176               	.LBB61:
 1177               	.LBB55:
 1178               	.LM176:
 1179 0538 FE01      		movw r30,r28
 1180 053a 3B96      		adiw r30,11
 1181               	.LVL94:
 1182               	.L69:
 1183               	.LBE55:
 1184               	.LBE61:
 1185               	.LBB62:
 1186               	.LM177:
 1187 053c E1BC      		out 65-32,r14
 1188               	.LM178:
 1189 053e 5527      		clr r21
 1190 0540 412F      		mov r20,r17
 1191 0542 302F      		mov r19,r16
 1192 0544 2F2D      		mov r18,r15
 1193 0546 22BD      		out 66-32,r18
 1194               	.LM179:
 1195 0548 0894      		sec
 1196 054a E11C      		adc r14,__zero_reg__
 1197 054c F11C      		adc r15,__zero_reg__
 1198 054e 011D      		adc r16,__zero_reg__
 1199 0550 111D      		adc r17,__zero_reg__
 1200               	.LVL95:
 1201               	.LM180:
 1202 0552 2191      		ld r18,Z+
 1203               	.LVL96:
 1204 0554 20BD      		out 64-32,r18
 1205               	.LVL97:
 1206               	.LM181:
 1207 0556 FA9A      		sbi 63-32,2
 1208               	.LM182:
 1209 0558 F99A      		sbi 63-32,1
 1210               	.L68:
 1211               	.LM183:
 1212 055a F999      		sbic 63-32,1
 1213 055c 00C0      		rjmp .L68
 1214               	.LM184:
 1215 055e E816      		cp r14,r24
 1216 0560 F906      		cpc r15,r25
 1217 0562 0A07      		cpc r16,r26
 1218 0564 1B07      		cpc r17,r27
 1219 0566 01F4      		brne .L69
 1220               	.LVL98:
 1221               	.L67:
 1222               	.LM185:
 1223 0568 1A82      		std Y+2,__zero_reg__
 1224 056a 00C0      		rjmp .L115
 1225               	.LVL99:
 1226               	.L45:
 1227               	.LBE62:
 1228               	.LBB63:
 1229               	.LM186:
 1230 056c 5A81      		ldd r21,Y+2
 1231 056e CD5D      		subi r28,lo8(-291)
 1232 0570 DE4F      		sbci r29,hi8(-291)
 1233 0572 5883      		st Y,r21
 1234 0574 C352      		subi r28,lo8(291)
 1235 0576 D140      		sbci r29,hi8(291)
 1236 0578 CE5D      		subi r28,lo8(-290)
 1237 057a DE4F      		sbci r29,hi8(-290)
 1238 057c 1882      		st Y,__zero_reg__
 1239 057e C252      		subi r28,lo8(290)
 1240 0580 D140      		sbci r29,hi8(290)
 1241 0582 2B81      		ldd r18,Y+3
 1242               	.LVL100:
 1243 0584 30E0      		ldi r19,lo8(0)
 1244 0586 CE5D      		subi r28,lo8(-290)
 1245 0588 DE4F      		sbci r29,hi8(-290)
 1246 058a 8881      		ld r24,Y
 1247 058c 9981      		ldd r25,Y+1
 1248 058e C252      		subi r28,lo8(290)
 1249 0590 D140      		sbci r29,hi8(290)
 1250 0592 282B      		or r18,r24
 1251 0594 392B      		or r19,r25
 1252               	.LVL101:
 1253               	.LM187:
 1254 0596 73E0      		ldi r23,lo8(3)
 1255 0598 C72E      		mov r12,r23
 1256 059a D12C      		mov r13,__zero_reg__
 1257 059c C20E      		add r12,r18
 1258 059e D31E      		adc r13,r19
 1259               	.LVL102:
 1260               	.LM188:
 1261 05a0 1A82      		std Y+2,__zero_reg__
 1262               	.LVL103:
 1263               	.LM189:
 1264 05a2 4431      		cpi r20,lo8(20)
 1265 05a4 01F4      		brne .L70
 1266               	.LM190:
 1267 05a6 DE01      		movw r26,r28
 1268 05a8 1396      		adiw r26,3
 1269 05aa AD01      		movw r20,r26
 1270 05ac D801      		movw r26,r16
 1271 05ae C701      		movw r24,r14
 1272               	.L71:
 1273               	.LVL104:
 1274               	.LBB64:
 1275               	.LBB65:
 1276               	.LM191:
 1277               	/* #APP */
 1278               	 ;  745 "stk500boot.c" 1
 1279 05b0 ABBF      		out 59, r26
 1280 05b2 FC01      		movw r30, r24
 1281 05b4 6791      		elpm r22, Z+
 1282 05b6 7691      		elpm r23, Z
 1283               		
 1284               	 ;  0 "" 2
 1285               	/* #NOAPP */
 1286               	.LBE65:
 1287               	.LM192:
 1288 05b8 FA01      		movw r30,r20
 1289 05ba 6083      		st Z,r22
 1290               	.LVL105:
 1291               	.LM193:
 1292 05bc 7183      		std Z+1,r23
 1293               	.LM194:
 1294 05be 4E5F      		subi r20,lo8(-(2))
 1295 05c0 5F4F      		sbci r21,hi8(-(2))
 1296               	.LVL106:
 1297               	.LM195:
 1298 05c2 0296      		adiw r24,2
 1299 05c4 A11D      		adc r26,__zero_reg__
 1300 05c6 B11D      		adc r27,__zero_reg__
 1301               	.LVL107:
 1302               	.LM196:
 1303 05c8 2250      		subi r18,lo8(-(-2))
 1304 05ca 3040      		sbci r19,hi8(-(-2))
 1305               	.LVL108:
 1306               	.LM197:
 1307 05cc 01F4      		brne .L71
 1308 05ce 7C01      		movw r14,r24
 1309 05d0 8D01      		movw r16,r26
 1310 05d2 DA01      		movw r26,r20
 1311 05d4 00C0      		rjmp .L72
 1312               	.LVL109:
 1313               	.L70:
 1314               	.LM198:
 1315 05d6 FE01      		movw r30,r28
 1316 05d8 3396      		adiw r30,3
 1317               	.LM199:
 1318 05da 2150      		subi r18,lo8(-(-1))
 1319 05dc 3040      		sbci r19,hi8(-(-1))
 1320               	.LVL110:
 1321 05de 40E0      		ldi r20,lo8(0)
 1322 05e0 50E0      		ldi r21,hi8(0)
 1323 05e2 2F5F      		subi r18,lo8(-(1))
 1324 05e4 3F4F      		sbci r19,hi8(-(1))
 1325 05e6 4F4F      		sbci r20,hlo8(-(1))
 1326 05e8 5F4F      		sbci r21,hhi8(-(1))
 1327               	.LVL111:
 1328 05ea 2E0D      		add r18,r14
 1329 05ec 3F1D      		adc r19,r15
 1330 05ee 401F      		adc r20,r16
 1331 05f0 511F      		adc r21,r17
 1332               	.L73:
 1333               	.LVL112:
 1334               	.LBE64:
 1335               	.LM200:
 1336 05f2 E1BC      		out 65-32,r14
 1337               	.LM201:
 1338 05f4 BB27      		clr r27
 1339 05f6 A12F      		mov r26,r17
 1340 05f8 902F      		mov r25,r16
 1341 05fa 8F2D      		mov r24,r15
 1342 05fc 82BD      		out 66-32,r24
 1343               	.LM202:
 1344 05fe 0894      		sec
 1345 0600 E11C      		adc r14,__zero_reg__
 1346 0602 F11C      		adc r15,__zero_reg__
 1347 0604 011D      		adc r16,__zero_reg__
 1348 0606 111D      		adc r17,__zero_reg__
 1349               	.LVL113:
 1350               	.LM203:
 1351 0608 F89A      		sbi 63-32,0
 1352               	.LM204:
 1353 060a 80B5      		in r24,64-32
 1354 060c 8193      		st Z+,r24
 1355 060e DF01      		movw r26,r30
 1356               	.LVL114:
 1357               	.LM205:
 1358 0610 E216      		cp r14,r18
 1359 0612 F306      		cpc r15,r19
 1360 0614 0407      		cpc r16,r20
 1361 0616 1507      		cpc r17,r21
 1362 0618 01F4      		brne .L73
 1363               	.LVL115:
 1364               	.L72:
 1365               	.LM206:
 1366 061a 1C92      		st X,__zero_reg__
 1367               	.LVL116:
 1368               	.LBE63:
 1369               	.LM207:
 1370 061c 90E0      		ldi r25,lo8(0)
 1371 061e 00C0      		rjmp .L55
 1372               	.LVL117:
 1373               	.L37:
 1374               	.LM208:
 1375 0620 F0EC      		ldi r31,lo8(-64)
 1376 0622 FA83      		std Y+2,r31
 1377               	.LVL118:
 1378               	.L115:
 1379               	.LM209:
 1380 0624 90E0      		ldi r25,lo8(0)
 1381               	.L111:
 1382               	.LM210:
 1383 0626 22E0      		ldi r18,lo8(2)
 1384 0628 C22E      		mov r12,r18
 1385 062a D12C      		mov r13,__zero_reg__
 1386               	.LVL119:
 1387               	.L55:
 1388               	.LM211:
 1389 062c 8BE1      		ldi r24,lo8(27)
 1390 062e C95D      		subi r28,lo8(-295)
 1391 0630 DE4F      		sbci r29,hi8(-295)
 1392 0632 9883      		st Y,r25
 1393 0634 C752      		subi r28,lo8(295)
 1394 0636 D140      		sbci r29,hi8(295)
 1395 0638 0E94 0000 		call sendchar
 1396               	.LVL120:
 1397               	.LM212:
 1398 063c 892D      		mov r24,r9
 1399 063e 0E94 0000 		call sendchar
 1400               	.LVL121:
 1401               	.LM213:
 1402 0642 8D2D      		mov r24,r13
 1403 0644 0E94 0000 		call sendchar
 1404               	.LVL122:
 1405               	.LM214:
 1406 0648 8C2D      		mov r24,r12
 1407 064a 0E94 0000 		call sendchar
 1408               	.LVL123:
 1409               	.LM215:
 1410 064e 8EE0      		ldi r24,lo8(14)
 1411 0650 0E94 0000 		call sendchar
 1412               	.LM216:
 1413 0654 95E1      		ldi r25,lo8(21)
 1414 0656 892E      		mov r8,r25
 1415 0658 8924      		eor r8,r9
 1416               	.LM217:
 1417 065a 8C24      		eor r8,r12
 1418               	.LM218:
 1419 065c 8D24      		eor r8,r13
 1420               	.LVL124:
 1421               	.LM219:
 1422 065e 5E01      		movw r10,r28
 1423 0660 0894      		sec
 1424 0662 A11C      		adc r10,__zero_reg__
 1425 0664 B11C      		adc r11,__zero_reg__
 1426 0666 00C0      		rjmp .L113
 1427               	.LVL125:
 1428               	.L75:
 1429               	.LM220:
 1430 0668 F501      		movw r30,r10
 1431 066a 2191      		ld r18,Z+
 1432 066c 5F01      		movw r10,r30
 1433               	.LVL126:
 1434               	.LM221:
 1435 066e 822F      		mov r24,r18
 1436 0670 CA5D      		subi r28,lo8(-294)
 1437 0672 DE4F      		sbci r29,hi8(-294)
 1438 0674 2883      		st Y,r18
 1439 0676 C652      		subi r28,lo8(294)
 1440 0678 D140      		sbci r29,hi8(294)
 1441 067a C95D      		subi r28,lo8(-295)
 1442 067c DE4F      		sbci r29,hi8(-295)
 1443 067e 9883      		st Y,r25
 1444 0680 C752      		subi r28,lo8(295)
 1445 0682 D140      		sbci r29,hi8(295)
 1446 0684 0E94 0000 		call sendchar
 1447               	.LVL127:
 1448               	.LM222:
 1449 0688 CA5D      		subi r28,lo8(-294)
 1450 068a DE4F      		sbci r29,hi8(-294)
 1451 068c 2881      		ld r18,Y
 1452 068e C652      		subi r28,lo8(294)
 1453 0690 D140      		sbci r29,hi8(294)
 1454 0692 8226      		eor r8,r18
 1455               	.LVL128:
 1456               	.LM223:
 1457 0694 0894      		sec
 1458 0696 C108      		sbc r12,__zero_reg__
 1459 0698 D108      		sbc r13,__zero_reg__
 1460               	.LVL129:
 1461               	.L113:
 1462 069a C95D      		subi r28,lo8(-295)
 1463 069c DE4F      		sbci r29,hi8(-295)
 1464 069e 9881      		ld r25,Y
 1465 06a0 C752      		subi r28,lo8(295)
 1466 06a2 D140      		sbci r29,hi8(295)
 1467               	.LVL130:
 1468               	.LM224:
 1469 06a4 C114      		cp r12,__zero_reg__
 1470 06a6 D104      		cpc r13,__zero_reg__
 1471 06a8 01F4      		brne .L75
 1472               	.LM225:
 1473 06aa 882D      		mov r24,r8
 1474 06ac C95D      		subi r28,lo8(-295)
 1475 06ae DE4F      		sbci r29,hi8(-295)
 1476 06b0 9883      		st Y,r25
 1477 06b2 C752      		subi r28,lo8(295)
 1478 06b4 D140      		sbci r29,hi8(295)
 1479 06b6 0E94 0000 		call sendchar
 1480               	.LVL131:
 1481               	.LM226:
 1482 06ba C95D      		subi r28,lo8(-295)
 1483 06bc DE4F      		sbci r29,hi8(-295)
 1484 06be 9881      		ld r25,Y
 1485 06c0 C752      		subi r28,lo8(295)
 1486 06c2 D140      		sbci r29,hi8(295)
 1487 06c4 9923      		tst r25
 1488 06c6 01F4      		brne .L17
 1489               	.LM227:
 1490 06c8 9394      		inc r9
 1491               	.LVL132:
 1492 06ca 20E0      		ldi r18,lo8(0)
 1493 06cc 30E0      		ldi r19,hi8(0)
 1494               	.LVL133:
 1495               	.L18:
 1496               	.LM228:
 1497 06ce 60E0      		ldi r22,lo8(0)
 1498 06d0 70E0      		ldi r23,hi8(0)
 1499 06d2 80E0      		ldi r24,lo8(0)
 1500 06d4 00C0      		rjmp .L76
 1501               	.LVL134:
 1502               	.L17:
 1503               	.LM229:
 1504 06d6 8AE6      		ldi r24,lo8(106)
 1505 06d8 0E94 0000 		call sendchar
 1506               	.LM230:
 1507 06dc 8DE0      		ldi r24,lo8(13)
 1508 06de 0E94 0000 		call sendchar
 1509               	.LM231:
 1510 06e2 8AE0      		ldi r24,lo8(10)
 1511 06e4 0E94 0000 		call sendchar
 1512               	.LM232:
 1513 06e8 84E6      		ldi r24,lo8(100)
 1514 06ea 90E0      		ldi r25,hi8(100)
 1515 06ec 0E94 0000 		call delay_ms
 1516               	.LM233:
 1517               	/* #APP */
 1518               	 ;  831 "stk500boot.c" 1
 1519 06f0 0000      		nop
 1520               	 ;  0 "" 2
 1521               	.LM234:
 1522               	/* #NOAPP */
 1523 06f2 8091 C000 		lds r24,192
 1524 06f6 8D7F      		andi r24,lo8(-3)
 1525 06f8 8093 C000 		sts 192,r24
 1526               	.LM235:
 1527 06fc 81E1      		ldi r24,lo8(17)
 1528               	/* #APP */
 1529               	 ;  838 "stk500boot.c" 1
 1530 06fe 8093 5700 		sts 87, r24
 1531 0702 E895      		spm
 1532               		
 1533               	 ;  0 "" 2
 1534               	.LM236:
 1535               	 ;  841 "stk500boot.c" 1
 1536 0704 EE27      		clr	r30		
 1537 0706 FF27      		clr	r31		
 1538 0708 0994      		ijmp	
 1539               		
 1540               	 ;  0 "" 2
 1541               	/* #NOAPP */
 1542               	.L77:
 1543 070a 00C0      		rjmp .L77
 1544               	.LVL135:
 1545               	.L118:
 1546               	.LM237:
 1547 070c 8BE1      		ldi r24,lo8(27)
 1548 070e 882E      		mov r8,r24
 1549               	.LM238:
 1550 0710 81E0      		ldi r24,lo8(1)
 1551 0712 00C0      		rjmp .L36
 1552               	.L81:
 1553               	.LM239:
 1554 0714 80E0      		ldi r24,lo8(0)
 1555 0716 00C0      		rjmp .L36
 1556               	.LVL136:
 1557               	.L119:
 1558               	.LM240:
 1559 0718 86E0      		ldi r24,lo8(6)
 1560               	.LVL137:
 1561 071a 00C0      		rjmp .L36
 1562               	.LFE11:
 1564               		.data
 1567               	CSWTCH.6:
 1568 0000 00        		.byte	0
 1569 0001 00        		.byte	0
 1570 0002 00        		.byte	0
 1571 0003 00        		.byte	0
 1572 0004 00        		.byte	0
 1573 0005 00        		.byte	0
 1574 0006 00        		.byte	0
 1575 0007 00        		.byte	0
 1576 0008 00        		.byte	0
 1577 0009 00        		.byte	0
 1578 000a 00        		.byte	0
 1579 000b 00        		.byte	0
 1580 000c 00        		.byte	0
 1581 000d 00        		.byte	0
 1582 000e 00        		.byte	0
 1583 000f 00        		.byte	0
 1584 0010 0F        		.byte	15
 1585 0011 02        		.byte	2
 1586 0012 0A        		.byte	10
 1635               	.Letext0:
DEFINED SYMBOLS
                            *ABS*:0000000000000000 stk500boot.c
     /tmp/ccbSmT9q.s:2      *ABS*:000000000000003f __SREG__
     /tmp/ccbSmT9q.s:3      *ABS*:000000000000003e __SP_H__
     /tmp/ccbSmT9q.s:4      *ABS*:000000000000003d __SP_L__
     /tmp/ccbSmT9q.s:5      *ABS*:0000000000000034 __CCP__
     /tmp/ccbSmT9q.s:6      *ABS*:0000000000000000 __tmp_reg__
     /tmp/ccbSmT9q.s:7      *ABS*:0000000000000001 __zero_reg__
     /tmp/ccbSmT9q.s:17     .text:0000000000000000 sendchar
     /tmp/ccbSmT9q.s:45     .init9:0000000000000000 __jumpMain
     /tmp/ccbSmT9q.s:55     *ABS*:00000000000021ff __stack
     /tmp/ccbSmT9q.s:134    .text:0000000000000036 main
     /tmp/ccbSmT9q.s:93     .text:0000000000000018 delay_ms
     /tmp/ccbSmT9q.s:1567   .data:0000000000000000 CSWTCH.6

UNDEFINED SYMBOLS
__do_copy_data
