   1               		.file	"stk500boot.c"
   2               	__SREG__ = 0x3f
   3               	__SP_H__ = 0x3e
   4               	__SP_L__ = 0x3d
   5               	__CCP__ = 0x34
   6               	__tmp_reg__ = 0
   7               	__zero_reg__ = 1
  15               	.Ltext0:
  17               	sendchar:
  18               	.LFB7:
  19               	.LM1:
  20               	.LVL0:
  21               	/* prologue: function */
  22               	/* frame size = 0 */
  23               	/* stack size = 0 */
  24               	.L__stack_usage = 0
  25               	.LM2:
  26 0000 8093 C600 		sts 198,r24
  27               	.LVL1:
  28               	.L2:
  29               	.LM3:
  30 0004 8091 C000 		lds r24,192
  31 0008 86FF      		sbrs r24,6
  32 000a 00C0      		rjmp .L2
  33               	.LM4:
  34 000c 8091 C000 		lds r24,192
  35 0010 8064      		ori r24,lo8(64)
  36 0012 8093 C000 		sts 192,r24
  37               	/* epilogue start */
  38               	.LM5:
  39 0016 0895      		ret
  40               	.LFE7:
  42               		.section	.init9,"ax",@progbits
  43               	.global	__jumpMain
  45               	__jumpMain:
  46               	.LFB6:
  47               	.LSM0:
  48               	/* prologue: naked */
  49               	/* frame size = 0 */
  50               	/* stack size = 0 */
  51               	.L__stack_usage = 0
  52               	.LSM1:
  53               	/* #APP */
  54               	 ;  269 "stk500boot.c" 1
  55               		.set __stack, 2303
  56               	 ;  0 "" 2
  57               	.LSM2:
  58               	 ;  272 "stk500boot.c" 1
  59 0000 8FEF      		ldi r24,255
  60               	 ;  0 "" 2
  61               	.LSM3:
  62               	 ;  273 "stk500boot.c" 1
  63 0002 98E0      		ldi r25,8
  64               	 ;  0 "" 2
  65               	.LSM4:
  66               	 ;  274 "stk500boot.c" 1
  67 0004 9EBF      		out __SP_H__,r25
  68               	 ;  0 "" 2
  69               	.LSM5:
  70               	 ;  275 "stk500boot.c" 1
  71 0006 8DBF      		out __SP_L__,r24
  72               	 ;  0 "" 2
  73               	.LSM6:
  74               	 ;  277 "stk500boot.c" 1
  75 0008 1124      		clr __zero_reg__
  76               	 ;  0 "" 2
  77               	.LSM7:
  78               	 ;  278 "stk500boot.c" 1
  79 000a 1FBE      		out 63, __zero_reg__
  80               	 ;  0 "" 2
  81               	.LSM8:
  82               	 ;  279 "stk500boot.c" 1
  83 000c 00C0      		rjmp main
  84               	 ;  0 "" 2
  85               	/* epilogue start */
  86               	.LSM9:
  87               	/* #NOAPP */
  88               	.LFE6:
  90               		.text
  91               	.global	main
  93               	main:
  94               	.LFB10:
  95               	.LM6:
  96 0018 CDB7      		in r28,__SP_L__
  97 001a DEB7      		in r29,__SP_H__
  98 001c C952      		subi r28,lo8(-(-297))
  99 001e D140      		sbci r29,hi8(-(-297))
 100 0020 DEBF      		out __SP_H__, r29
 101 0022 CDBF      		out __SP_L__, r28
 102               	/* prologue: function */
 103               	/* frame size = 297 */
 104               	/* stack size = 297 */
 105               	.L__stack_usage = 297
 106               	.LM7:
 107 0024 2DE0      		ldi r18,lo8(13)
 108 0026 88E1      		ldi r24,lo8(24)
 109 0028 90E0      		ldi r25,hi8(24)
 110               	/* #APP */
 111               	 ;  335 "stk500boot.c" 1
 112 002a 0FB6      		in __tmp_reg__,__SREG__
 113 002c F894      		cli
 114 002e A895      		wdr
 115 0030 8093 6000 		sts 96,r24
 116 0034 0FBE      		out __SREG__,__tmp_reg__
 117 0036 2093 6000 		sts 96,r18
 118               		
 119               	 ;  0 "" 2
 120               	.LVL2:
 121               	.LM8:
 122               	/* #NOAPP */
 123 003a 8091 C000 		lds r24,192
 124 003e 8260      		ori r24,lo8(2)
 125 0040 8093 C000 		sts 192,r24
 126               	.LM9:
 127 0044 80E1      		ldi r24,lo8(16)
 128 0046 8093 C400 		sts 196,r24
 129               	.LM10:
 130 004a 88E1      		ldi r24,lo8(24)
 131 004c 8093 C100 		sts 193,r24
 132               	.LVL3:
 133               	.LM11:
 134 0050 81E0      		ldi r24,lo8(1)
 135 0052 8983      		std Y+1,r24
 136               	.LM12:
 137 0054 1A82      		std Y+2,__zero_reg__
 138               	.LM13:
 139 0056 88E0      		ldi r24,lo8(8)
 140 0058 8B83      		std Y+3,r24
 141               	.LM14:
 142 005a 81E4      		ldi r24,lo8(65)
 143 005c 8C83      		std Y+4,r24
 144               	.LM15:
 145 005e 86E5      		ldi r24,lo8(86)
 146 0060 8D83      		std Y+5,r24
 147               	.LM16:
 148 0062 82E5      		ldi r24,lo8(82)
 149 0064 8E83      		std Y+6,r24
 150               	.LM17:
 151 0066 89E4      		ldi r24,lo8(73)
 152 0068 8F83      		std Y+7,r24
 153               	.LM18:
 154 006a 83E5      		ldi r24,lo8(83)
 155 006c 8887      		std Y+8,r24
 156               	.LM19:
 157 006e 80E5      		ldi r24,lo8(80)
 158 0070 8987      		std Y+9,r24
 159               	.LM20:
 160 0072 8FE5      		ldi r24,lo8(95)
 161 0074 8A87      		std Y+10,r24
 162               	.LM21:
 163 0076 82E3      		ldi r24,lo8(50)
 164 0078 8B87      		std Y+11,r24
 165               	.LM22:
 166 007a 8BE1      		ldi r24,lo8(27)
 167 007c 0E94 0000 		call sendchar
 168               	.LVL4:
 169               	.LM23:
 170 0080 81E0      		ldi r24,lo8(1)
 171 0082 0E94 0000 		call sendchar
 172               	.LVL5:
 173               	.LM24:
 174 0086 80E0      		ldi r24,lo8(0)
 175 0088 0E94 0000 		call sendchar
 176               	.LVL6:
 177               	.LM25:
 178 008c 8BE0      		ldi r24,lo8(11)
 179 008e 0E94 0000 		call sendchar
 180               	.LVL7:
 181               	.LM26:
 182 0092 8EE0      		ldi r24,lo8(14)
 183 0094 0E94 0000 		call sendchar
 184               	.LVL8:
 185               	.LM27:
 186 0098 7CE0      		ldi r23,lo8(12)
 187 009a E72E      		mov r14,r23
 188 009c F12C      		mov r15,__zero_reg__
 189 009e EC0E      		add r14,r28
 190 00a0 FD1E      		adc r15,r29
 191               	.LM28:
 192 00a2 8E01      		movw r16,r28
 193 00a4 0F5F      		subi r16,lo8(-(1))
 194 00a6 1F4F      		sbci r17,hi8(-(1))
 195               	.LM29:
 196 00a8 6FE1      		ldi r22,lo8(31)
 197 00aa 862E      		mov r8,r22
 198               	.LVL9:
 199               	.L6:
 200               	.LM30:
 201 00ac F801      		movw r30,r16
 202 00ae C190      		ld r12,Z+
 203 00b0 8F01      		movw r16,r30
 204               	.LVL10:
 205               	.LM31:
 206 00b2 8C2D      		mov r24,r12
 207 00b4 0E94 0000 		call sendchar
 208               	.LVL11:
 209               	.LM32:
 210 00b8 8C24      		eor r8,r12
 211               	.LVL12:
 212               	.LM33:
 213 00ba 0E15      		cp r16,r14
 214 00bc 1F05      		cpc r17,r15
 215 00be 01F4      		brne .L6
 216               	.LM34:
 217 00c0 882D      		mov r24,r8
 218 00c2 0E94 0000 		call sendchar
 219               	.LVL13:
 220               	.LM35:
 221 00c6 80E0      		ldi r24,lo8(0)
 222 00c8 90E0      		ldi r25,hi8(0)
 223 00ca DC01      		movw r26,r24
 224               	.LM36:
 225 00cc 20E0      		ldi r18,lo8(0)
 226 00ce 30E0      		ldi r19,hi8(0)
 227 00d0 00C0      		rjmp .L12
 228               	.LVL14:
 229               	.L10:
 230               	.LBB23:
 231               	.LBB24:
 232               	.LM37:
 233 00d2 F5E0      		 ldi r31,lo8(5)
 234 00d4 FA95      	    1:dec r31
 235 00d6 01F4      	    brne 1b
 236 00d8 0000      		nop
 237               	.LBE24:
 238               	.LBE23:
 239               	.LM38:
 240 00da 0196      		adiw r24,1
 241 00dc A11D      		adc r26,__zero_reg__
 242 00de B11D      		adc r27,__zero_reg__
 243               	.LVL15:
 244               	.LM39:
 245 00e0 21E0      		ldi r18,lo8(1)
 246 00e2 30E0      		ldi r19,hi8(1)
 247               	.LVL16:
 248 00e4 8139      		cpi r24,lo8(250001)
 249 00e6 10ED      		ldi r17,hi8(250001)
 250 00e8 9107      		cpc r25,r17
 251 00ea 13E0      		ldi r17,hlo8(250001)
 252 00ec A107      		cpc r26,r17
 253 00ee 10E0      		ldi r17,hhi8(250001)
 254 00f0 B107      		cpc r27,r17
 255 00f2 00F4      		brsh .L8
 256 00f4 20E0      		ldi r18,lo8(0)
 257 00f6 30E0      		ldi r19,hi8(0)
 258               	.L8:
 259               	.LVL17:
 260               	.LM40:
 261               	/* #APP */
 262               	 ;  419 "stk500boot.c" 1
 263 00f8 A895      		wdr
 264               	 ;  0 "" 2
 265               	.LVL18:
 266               	/* #NOAPP */
 267               	.L12:
 268               	.LBB25:
 269               	.LBB26:
 270               	.LM41:
 271 00fa 4091 C000 		lds r20,192
 272               	.LBE26:
 273               	.LBE25:
 274               	.LM42:
 275 00fe 47FD      		sbrc r20,7
 276 0100 00C0      		rjmp .L9
 277               	.LM43:
 278 0102 2115      		cp r18,__zero_reg__
 279 0104 3105      		cpc r19,__zero_reg__
 280 0106 01F0      		breq .L10
 281               	.L9:
 282               	.LVL19:
 283               	.LM44:
 284 0108 2F5F      		subi r18,lo8(-(1))
 285 010a 3F4F      		sbci r19,hi8(-(1))
 286               	.LVL20:
 287               	.LM45:
 288 010c 2130      		cpi r18,1
 289 010e 3105      		cpc r19,__zero_reg__
 290 0110 01F0      		breq .+2
 291 0112 00C0      		rjmp .L13
 292 0114 52E0      		ldi r21,lo8(2)
 293 0116 952E      		mov r9,r21
 294 0118 CC24      		clr r12
 295 011a DD24      		clr r13
 296               	.LVL21:
 297 011c 6624      		clr r6
 298 011e 7724      		clr r7
 299 0120 EE24      		clr r14
 300 0122 FF24      		clr r15
 301               	.LBB27:
 302               	.LBB28:
 303               	.LBB29:
 304               	.LBB30:
 305               	.LM46:
 306 0124 F601      		movw r30,r12
 307               	/* #APP */
 308               	 ;  315 "stk500boot.c" 1
 309 0126 8591      		lpm r24, Z+
 310 0128 9491      		lpm r25, Z
 311               		
 312               	 ;  0 "" 2
 313               	/* #NOAPP */
 314 012a CA5D      		subi r28,lo8(-294)
 315 012c DE4F      		sbci r29,hi8(-294)
 316 012e 9983      		std Y+1,r25
 317 0130 8883      		st Y,r24
 318 0132 C652      		subi r28,lo8(294)
 319 0134 D140      		sbci r29,hi8(294)
 320               	.LBE30:
 321               	.LBE29:
 322               	.LBE28:
 323               	.LBE27:
 324               	.LM47:
 325 0136 2E01      		movw r4,r28
 326 0138 0894      		sec
 327 013a 411C      		adc r4,__zero_reg__
 328 013c 511C      		adc r5,__zero_reg__
 329               	.LBB33:
 330               	.LM48:
 331 013e 4BE0      		ldi r20,lo8(11)
 332 0140 242E      		mov r2,r20
 333 0142 312C      		mov r3,__zero_reg__
 334 0144 2C0E      		add r2,r28
 335 0146 3D1E      		adc r3,r29
 336               	.LVL22:
 337               	.L70:
 338               	.LBE33:
 339               	.LM49:
 340               	/* #APP */
 341               	 ;  430 "stk500boot.c" 1
 342 0148 A895      		wdr
 343               	 ;  0 "" 2
 344               	.LVL23:
 345               	/* #NOAPP */
 346 014a 60E0      		ldi r22,lo8(0)
 347 014c 70E0      		ldi r23,hi8(0)
 348               	.LM50:
 349 014e 80E0      		ldi r24,lo8(0)
 350 0150 00C0      		rjmp .L14
 351               	.LVL24:
 352               	.L32:
 353               	.LM51:
 354 0152 20E0      		ldi r18,lo8(0)
 355 0154 30E0      		ldi r19,hi8(0)
 356               	.LVL25:
 357               	.L14:
 358               	.LM52:
 359               	/* #APP */
 360               	 ;  437 "stk500boot.c" 1
 361 0156 A895      		wdr
 362               	 ;  0 "" 2
 363               	.LM53:
 364               	/* #NOAPP */
 365 0158 2130      		cpi r18,1
 366 015a 3105      		cpc r19,__zero_reg__
 367 015c 01F4      		brne .L72
 368 015e 00C0      		rjmp .L97
 369               	.LVL26:
 370               	.L19:
 371               	.LBB34:
 372               	.LBB32:
 373               	.LM54:
 374 0160 2F5F      		subi r18,lo8(-(1))
 375 0162 3F4F      		sbci r19,hi8(-(1))
 376 0164 4F4F      		sbci r20,hlo8(-(1))
 377 0166 5F4F      		sbci r21,hhi8(-(1))
 378               	.LVL27:
 379               	.LM55:
 380 0168 2130      		cpi r18,lo8(8000001)
 381 016a 92E1      		ldi r25,hi8(8000001)
 382 016c 3907      		cpc r19,r25
 383 016e 9AE7      		ldi r25,hlo8(8000001)
 384 0170 4907      		cpc r20,r25
 385 0172 90E0      		ldi r25,hhi8(8000001)
 386 0174 5907      		cpc r21,r25
 387 0176 00F0      		brlo .L94
 388               	.LBB31:
 389               	.LM56:
 390 0178 CA5D      		subi r28,lo8(-294)
 391 017a DE4F      		sbci r29,hi8(-294)
 392 017c E881      		ld r30,Y
 393 017e F981      		ldd r31,Y+1
 394 0180 C652      		subi r28,lo8(294)
 395 0182 D140      		sbci r29,hi8(294)
 396 0184 1FEF      		ldi r17,hi8(-1)
 397 0186 EF3F      		cpi r30,lo8(-1)
 398 0188 F107      		cpc r31,r17
 399 018a 01F0      		breq .L72
 400               	.LM57:
 401               	/* #APP */
 402               	 ;  319 "stk500boot.c" 1
 403 018c EE27      		clr	r30		
 404 018e FF27      		clr	r31		
 405 0190 0994      		ijmp	
 406               		
 407               	 ;  0 "" 2
 408               	.LVL28:
 409               	/* #NOAPP */
 410               	.L72:
 411               	.LM58:
 412 0192 20E0      		ldi r18,lo8(0)
 413 0194 30E0      		ldi r19,hi8(0)
 414 0196 A901      		movw r20,r18
 415               	.L94:
 416               	.LVL29:
 417               	.LBE31:
 418               	.LM59:
 419 0198 9091 C000 		lds r25,192
 420 019c 97FF      		sbrs r25,7
 421 019e 00C0      		rjmp .L19
 422               	.LVL30:
 423               	.L97:
 424               	.LM60:
 425 01a0 2091 C600 		lds r18,198
 426               	.LVL31:
 427               	.LBE32:
 428               	.LBE34:
 429               	.LM61:
 430 01a4 8330      		cpi r24,lo8(3)
 431 01a6 01F0      		breq .L24
 432 01a8 8430      		cpi r24,lo8(4)
 433 01aa 00F4      		brsh .L28
 434 01ac 8130      		cpi r24,lo8(1)
 435 01ae 01F0      		breq .L22
 436 01b0 8230      		cpi r24,lo8(2)
 437 01b2 00F4      		brsh .L23
 438 01b4 00C0      		rjmp .L104
 439               	.L28:
 440 01b6 8530      		cpi r24,lo8(5)
 441 01b8 01F0      		breq .L26
 442 01ba 8530      		cpi r24,lo8(5)
 443 01bc 00F0      		brlo .L25
 444 01be 8630      		cpi r24,lo8(6)
 445 01c0 01F4      		brne .L96
 446 01c2 00C0      		rjmp .L105
 447               	.L104:
 448               	.LM62:
 449 01c4 2B31      		cpi r18,lo8(27)
 450 01c6 01F0      		breq .+2
 451 01c8 00C0      		rjmp .L32
 452 01ca 00C0      		rjmp .L106
 453               	.L22:
 454               	.LM63:
 455 01cc 2130      		cpi r18,lo8(1)
 456 01ce 01F0      		breq .L30
 457               	.LM64:
 458 01d0 2915      		cp r18,r9
 459 01d2 01F0      		breq .+2
 460 01d4 00C0      		rjmp .L75
 461               	.L30:
 462               	.LVL32:
 463               	.LM65:
 464 01d6 8226      		eor r8,r18
 465               	.LVL33:
 466 01d8 922E      		mov r9,r18
 467               	.LM66:
 468 01da 82E0      		ldi r24,lo8(2)
 469               	.LM67:
 470 01dc 00C0      		rjmp .L32
 471               	.LVL34:
 472               	.L23:
 473               	.LM68:
 474 01de 722F      		mov r23,r18
 475 01e0 60E0      		ldi r22,lo8(0)
 476               	.LVL35:
 477               	.LM69:
 478 01e2 8226      		eor r8,r18
 479               	.LVL36:
 480               	.LM70:
 481 01e4 83E0      		ldi r24,lo8(3)
 482               	.LM71:
 483 01e6 00C0      		rjmp .L32
 484               	.LVL37:
 485               	.L24:
 486               	.LM72:
 487 01e8 822F      		mov r24,r18
 488 01ea 90E0      		ldi r25,lo8(0)
 489 01ec 682B      		or r22,r24
 490 01ee 792B      		or r23,r25
 491               	.LVL38:
 492               	.LM73:
 493 01f0 8226      		eor r8,r18
 494               	.LVL39:
 495               	.LM74:
 496 01f2 84E0      		ldi r24,lo8(4)
 497               	.LM75:
 498 01f4 00C0      		rjmp .L32
 499               	.LVL40:
 500               	.L25:
 501               	.LM76:
 502 01f6 2E30      		cpi r18,lo8(14)
 503 01f8 01F0      		breq .+2
 504 01fa 00C0      		rjmp .L75
 505               	.LVL41:
 506               	.LM77:
 507 01fc 8226      		eor r8,r18
 508               	.LVL42:
 509               	.LM78:
 510 01fe CC24      		clr r12
 511 0200 DD24      		clr r13
 512               	.LM79:
 513 0202 85E0      		ldi r24,lo8(5)
 514 0204 00C0      		rjmp .L32
 515               	.LVL43:
 516               	.L26:
 517               	.LM80:
 518 0206 F201      		movw r30,r4
 519 0208 EC0D      		add r30,r12
 520 020a FD1D      		adc r31,r13
 521 020c 2083      		st Z,r18
 522 020e 0894      		sec
 523 0210 C11C      		adc r12,__zero_reg__
 524 0212 D11C      		adc r13,__zero_reg__
 525               	.LVL44:
 526               	.LM81:
 527 0214 8226      		eor r8,r18
 528               	.LVL45:
 529               	.LM82:
 530 0216 C616      		cp r12,r22
 531 0218 D706      		cpc r13,r23
 532 021a 01F0      		breq .+2
 533 021c 00C0      		rjmp .L32
 534 021e 00C0      		rjmp .L107
 535               	.LVL46:
 536               	.L105:
 537               	.LM83:
 538 0220 2815      		cp r18,r8
 539 0222 01F0      		breq .+2
 540 0224 00C0      		rjmp .L75
 541 0226 00C0      		rjmp .L31
 542               	.L96:
 543               	.LVL47:
 544               	.LM84:
 545 0228 8730      		cpi r24,lo8(7)
 546 022a 01F0      		breq .+2
 547 022c 00C0      		rjmp .L32
 548               	.LVL48:
 549               	.L31:
 550               	.LM85:
 551 022e 4981      		ldd r20,Y+1
 552 0230 4331      		cpi r20,lo8(19)
 553 0232 01F4      		brne .+2
 554 0234 00C0      		rjmp .L40
 555 0236 4431      		cpi r20,lo8(20)
 556 0238 00F4      		brsh .L46
 557 023a 4630      		cpi r20,lo8(6)
 558 023c 01F4      		brne .+2
 559 023e 00C0      		rjmp .L37
 560 0240 4730      		cpi r20,lo8(7)
 561 0242 00F4      		brsh .L47
 562 0244 4230      		cpi r20,lo8(2)
 563 0246 01F0      		breq .L35
 564 0248 4330      		cpi r20,lo8(3)
 565 024a 01F4      		brne .+2
 566 024c 00C0      		rjmp .L36
 567 024e 4130      		cpi r20,lo8(1)
 568 0250 01F0      		breq .+2
 569 0252 00C0      		rjmp .L33
 570 0254 00C0      		rjmp .L108
 571               	.L47:
 572 0256 4131      		cpi r20,lo8(17)
 573 0258 01F4      		brne .+2
 574 025a 00C0      		rjmp .L77
 575 025c 4231      		cpi r20,lo8(18)
 576 025e 00F0      		brlo .+2
 577 0260 00C0      		rjmp .L39
 578 0262 4031      		cpi r20,lo8(16)
 579 0264 01F0      		breq .+2
 580 0266 00C0      		rjmp .L33
 581 0268 00C0      		rjmp .L35
 582               	.L46:
 583 026a 4831      		cpi r20,lo8(24)
 584 026c 01F4      		brne .+2
 585 026e 00C0      		rjmp .L42
 586 0270 4931      		cpi r20,lo8(25)
 587 0272 00F4      		brsh .L48
 588 0274 4531      		cpi r20,lo8(21)
 589 0276 01F4      		brne .+2
 590 0278 00C0      		rjmp .L40
 591 027a 4531      		cpi r20,lo8(21)
 592 027c 00F4      		brsh .+2
 593 027e 00C0      		rjmp .L41
 594 0280 4631      		cpi r20,lo8(22)
 595 0282 01F0      		breq .+2
 596 0284 00C0      		rjmp .L33
 597 0286 00C0      		rjmp .L41
 598               	.L48:
 599 0288 4B31      		cpi r20,lo8(27)
 600 028a 01F4      		brne .+2
 601 028c 00C0      		rjmp .L44
 602 028e 4D31      		cpi r20,lo8(29)
 603 0290 01F0      		breq .L45
 604 0292 4A31      		cpi r20,lo8(26)
 605 0294 01F0      		breq .+2
 606 0296 00C0      		rjmp .L33
 607 0298 00C0      		rjmp .L109
 608               	.L35:
 609 029a 90E0      		ldi r25,lo8(0)
 610 029c 00C0      		rjmp .L38
 611               	.L45:
 612               	.LVL49:
 613               	.LBB35:
 614               	.LM86:
 615 029e 9D81      		ldd r25,Y+5
 616 02a0 9033      		cpi r25,lo8(48)
 617 02a2 01F4      		brne .L78
 618               	.LBB36:
 619               	.LM87:
 620 02a4 8F81      		ldd r24,Y+7
 621               	.LVL50:
 622               	.LM88:
 623 02a6 8823      		tst r24
 624 02a8 01F0      		breq .L79
 625               	.LM89:
 626 02aa 8130      		cpi r24,lo8(1)
 627 02ac 01F4      		brne .L80
 628               	.LM90:
 629 02ae 85E9      		ldi r24,lo8(-107)
 630 02b0 00C0      		rjmp .L49
 631               	.LVL51:
 632               	.L78:
 633               	.LBE36:
 634               	.LM91:
 635 02b2 80E0      		ldi r24,lo8(0)
 636 02b4 00C0      		rjmp .L49
 637               	.LVL52:
 638               	.L79:
 639               	.LBB37:
 640               	.LM92:
 641 02b6 8EE1      		ldi r24,lo8(30)
 642               	.LVL53:
 643 02b8 00C0      		rjmp .L49
 644               	.L80:
 645               	.LM93:
 646 02ba 8FE0      		ldi r24,lo8(15)
 647               	.LVL54:
 648               	.L49:
 649               	.LBE37:
 650               	.LM94:
 651 02bc 1A82      		std Y+2,__zero_reg__
 652               	.LM95:
 653 02be 1B82      		std Y+3,__zero_reg__
 654               	.LM96:
 655 02c0 9C83      		std Y+4,r25
 656               	.LM97:
 657 02c2 9E81      		ldd r25,Y+6
 658 02c4 9D83      		std Y+5,r25
 659               	.LM98:
 660 02c6 8E83      		std Y+6,r24
 661               	.LM99:
 662 02c8 1F82      		std Y+7,__zero_reg__
 663               	.LBE35:
 664               	.LM100:
 665 02ca 90E0      		ldi r25,lo8(0)
 666               	.LM101:
 667 02cc 07E0      		ldi r16,lo8(7)
 668 02ce 10E0      		ldi r17,hi8(7)
 669               	.LM102:
 670 02d0 00C0      		rjmp .L50
 671               	.LVL55:
 672               	.L108:
 673               	.LM103:
 674 02d2 1A82      		std Y+2,__zero_reg__
 675               	.LM104:
 676 02d4 88E0      		ldi r24,lo8(8)
 677 02d6 8B83      		std Y+3,r24
 678               	.LM105:
 679 02d8 81E4      		ldi r24,lo8(65)
 680 02da 8C83      		std Y+4,r24
 681               	.LM106:
 682 02dc 86E5      		ldi r24,lo8(86)
 683 02de 8D83      		std Y+5,r24
 684               	.LM107:
 685 02e0 82E5      		ldi r24,lo8(82)
 686 02e2 8E83      		std Y+6,r24
 687               	.LM108:
 688 02e4 89E4      		ldi r24,lo8(73)
 689 02e6 8F83      		std Y+7,r24
 690               	.LM109:
 691 02e8 83E5      		ldi r24,lo8(83)
 692 02ea 8887      		std Y+8,r24
 693               	.LM110:
 694 02ec 80E5      		ldi r24,lo8(80)
 695 02ee 8987      		std Y+9,r24
 696               	.LM111:
 697 02f0 8FE5      		ldi r24,lo8(95)
 698 02f2 8A87      		std Y+10,r24
 699               	.LM112:
 700 02f4 82E3      		ldi r24,lo8(50)
 701 02f6 8B87      		std Y+11,r24
 702               	.LM113:
 703 02f8 90E0      		ldi r25,lo8(0)
 704               	.LM114:
 705 02fa 0BE0      		ldi r16,lo8(11)
 706 02fc 10E0      		ldi r17,hi8(11)
 707               	.LM115:
 708 02fe 00C0      		rjmp .L50
 709               	.LVL56:
 710               	.L36:
 711               	.LBB38:
 712               	.LM116:
 713 0300 EA81      		ldd r30,Y+2
 714 0302 E058      		subi r30,lo8(-(-128))
 715 0304 E331      		cpi r30,lo8(19)
 716 0306 00F4      		brsh .L81
 717 0308 F0E0      		ldi r31,lo8(0)
 718 030a E050      		subi r30,lo8(-(CSWTCH.6))
 719 030c F040      		sbci r31,hi8(-(CSWTCH.6))
 720 030e 8081      		ld r24,Z
 721 0310 00C0      		rjmp .L51
 722               	.L81:
 723 0312 80E0      		ldi r24,lo8(0)
 724               	.L51:
 725               	.LVL57:
 726               	.LM117:
 727 0314 1A82      		std Y+2,__zero_reg__
 728               	.LM118:
 729 0316 8B83      		std Y+3,r24
 730               	.LBE38:
 731               	.LM119:
 732 0318 90E0      		ldi r25,lo8(0)
 733               	.LM120:
 734 031a 03E0      		ldi r16,lo8(3)
 735 031c 10E0      		ldi r17,hi8(3)
 736               	.LM121:
 737 031e 00C0      		rjmp .L50
 738               	.LVL58:
 739               	.L77:
 740               	.LM122:
 741 0320 91E0      		ldi r25,lo8(1)
 742               	.L38:
 743               	.LVL59:
 744               	.LM123:
 745 0322 1A82      		std Y+2,__zero_reg__
 746 0324 00C0      		rjmp .L99
 747               	.LVL60:
 748               	.L44:
 749               	.LBB39:
 750               	.LM124:
 751 0326 8D81      		ldd r24,Y+5
 752               	.LVL61:
 753               	.LM125:
 754 0328 8823      		tst r24
 755 032a 01F0      		breq .L82
 756               	.LM126:
 757 032c 8130      		cpi r24,lo8(1)
 758 032e 01F4      		brne .L83
 759               	.LM127:
 760 0330 85E9      		ldi r24,lo8(-107)
 761 0332 00C0      		rjmp .L102
 762               	.L82:
 763               	.LM128:
 764 0334 8EE1      		ldi r24,lo8(30)
 765 0336 00C0      		rjmp .L102
 766               	.L83:
 767               	.LM129:
 768 0338 8FE0      		ldi r24,lo8(15)
 769               	.LVL62:
 770 033a 00C0      		rjmp .L102
 771               	.LVL63:
 772               	.L109:
 773               	.LBE39:
 774               	.LM130:
 775 033c 1A82      		std Y+2,__zero_reg__
 776               	.LBB40:
 777               	.LM131:
 778 033e E1E0      		ldi r30,lo8(1)
 779 0340 F0E0      		ldi r31,hi8(1)
 780 0342 89E0      		ldi r24,lo8(9)
 781               	/* #APP */
 782               	 ;  636 "stk500boot.c" 1
 783 0344 8093 5700 		sts 87, r24
 784 0348 E491      		lpm r30, Z
 785               		
 786               	 ;  0 "" 2
 787               	.LVL64:
 788               	/* #NOAPP */
 789               	.LBE40:
 790 034a EB83      		std Y+3,r30
 791               	.LVL65:
 792               	.L100:
 793               	.LM132:
 794 034c 1C82      		std Y+4,__zero_reg__
 795               	.LM133:
 796 034e 90E0      		ldi r25,lo8(0)
 797               	.LM134:
 798 0350 04E0      		ldi r16,lo8(4)
 799 0352 10E0      		ldi r17,hi8(4)
 800               	.LM135:
 801 0354 00C0      		rjmp .L50
 802               	.LVL66:
 803               	.L42:
 804               	.LBB41:
 805               	.LM136:
 806 0356 8B81      		ldd r24,Y+3
 807 0358 8035      		cpi r24,lo8(80)
 808 035a 01F4      		brne .L53
 809               	.LM137:
 810 035c 8C81      		ldd r24,Y+4
 811 035e 8830      		cpi r24,lo8(8)
 812 0360 01F4      		brne .L54
 813               	.LBB44:
 814               	.LM138:
 815 0362 89E0      		ldi r24,lo8(9)
 816 0364 E2E0      		ldi r30,lo8(2)
 817 0366 F0E0      		ldi r31,hi8(2)
 818 0368 00C0      		rjmp .L98
 819               	.L54:
 820               	.LBE44:
 821               	.LBB43:
 822               	.LM139:
 823 036a 89E0      		ldi r24,lo8(9)
 824 036c E0E0      		ldi r30,lo8(0)
 825 036e F0E0      		ldi r31,hi8(0)
 826 0370 00C0      		rjmp .L98
 827               	.L53:
 828               	.LBE43:
 829               	.LBB42:
 830               	.LM140:
 831 0372 E3E0      		ldi r30,lo8(3)
 832 0374 F0E0      		ldi r31,hi8(3)
 833 0376 89E0      		ldi r24,lo8(9)
 834               	.L98:
 835               	/* #APP */
 836               	 ;  653 "stk500boot.c" 1
 837 0378 8093 5700 		sts 87, r24
 838 037c 8491      		lpm r24, Z
 839               		
 840               	 ;  0 "" 2
 841               	/* #NOAPP */
 842               	.L102:
 843               	.LVL67:
 844               	.LBE42:
 845               	.LM141:
 846 037e 1A82      		std Y+2,__zero_reg__
 847               	.LM142:
 848 0380 8B83      		std Y+3,r24
 849 0382 00C0      		rjmp .L100
 850               	.LVL68:
 851               	.L39:
 852               	.LBE41:
 853               	.LM143:
 854 0384 1A82      		std Y+2,__zero_reg__
 855               	.LM144:
 856 0386 90E0      		ldi r25,lo8(0)
 857               	.LM145:
 858 0388 02E0      		ldi r16,lo8(2)
 859 038a 10E0      		ldi r17,hi8(2)
 860               	.LM146:
 861 038c 6624      		clr r6
 862 038e 7724      		clr r7
 863               	.LM147:
 864 0390 00C0      		rjmp .L50
 865               	.LVL69:
 866               	.L37:
 867               	.LM148:
 868 0392 FC81      		ldd r31,Y+4
 869 0394 C15E      		subi r28,lo8(-287)
 870 0396 DE4F      		sbci r29,hi8(-287)
 871 0398 F883      		st Y,r31
 872 039a CF51      		subi r28,lo8(287)
 873 039c D140      		sbci r29,hi8(287)
 874 039e C25E      		subi r28,lo8(-286)
 875 03a0 DE4F      		sbci r29,hi8(-286)
 876 03a2 1882      		st Y,__zero_reg__
 877 03a4 CE51      		subi r28,lo8(286)
 878 03a6 D140      		sbci r29,hi8(286)
 879 03a8 ED80      		ldd r14,Y+5
 880 03aa FF24      		clr r15
 881 03ac C25E      		subi r28,lo8(-286)
 882 03ae DE4F      		sbci r29,hi8(-286)
 883 03b0 2881      		ld r18,Y
 884 03b2 3981      		ldd r19,Y+1
 885 03b4 CE51      		subi r28,lo8(286)
 886 03b6 D140      		sbci r29,hi8(286)
 887               	.LVL70:
 888 03b8 E22A      		or r14,r18
 889 03ba F32A      		or r15,r19
 890 03bc EE0C      		lsl r14
 891 03be FF1C      		rol r15
 892               	.LVL71:
 893               	.LM149:
 894 03c0 1A82      		std Y+2,__zero_reg__
 895 03c2 00C0      		rjmp .L103
 896               	.LVL72:
 897               	.L40:
 898               	.LBB46:
 899               	.LM150:
 900 03c4 3A81      		ldd r19,Y+2
 901 03c6 CF5D      		subi r28,lo8(-289)
 902 03c8 DE4F      		sbci r29,hi8(-289)
 903 03ca 3883      		st Y,r19
 904 03cc C152      		subi r28,lo8(289)
 905 03ce D140      		sbci r29,hi8(289)
 906 03d0 C05E      		subi r28,lo8(-288)
 907 03d2 DE4F      		sbci r29,hi8(-288)
 908 03d4 1882      		st Y,__zero_reg__
 909 03d6 C052      		subi r28,lo8(288)
 910 03d8 D140      		sbci r29,hi8(288)
 911 03da 8B81      		ldd r24,Y+3
 912 03dc 90E0      		ldi r25,lo8(0)
 913 03de C05E      		subi r28,lo8(-288)
 914 03e0 DE4F      		sbci r29,hi8(-288)
 915 03e2 E881      		ld r30,Y
 916 03e4 F981      		ldd r31,Y+1
 917 03e6 C052      		subi r28,lo8(288)
 918 03e8 D140      		sbci r29,hi8(288)
 919 03ea 8E2B      		or r24,r30
 920 03ec 9F2B      		or r25,r31
 921               	.LVL73:
 922               	.LM151:
 923 03ee 4331      		cpi r20,lo8(19)
 924 03f0 01F0      		breq .+2
 925 03f2 00C0      		rjmp .L56
 926               	.LM152:
 927 03f4 F0E0      		ldi r31,lo8(30720)
 928 03f6 6F16      		cp r6,r31
 929 03f8 F8E7      		ldi r31,hi8(30720)
 930 03fa 7F06      		cpc r7,r31
 931 03fc 00F4      		brsh .L57
 932               	.LM153:
 933 03fe 13E0      		ldi r17,lo8(3)
 934 0400 F301      		movw r30,r6
 935               	/* #APP */
 936               	 ;  688 "stk500boot.c" 1
 937 0402 1093 5700 		sts 87, r17
 938 0406 E895      		spm
 939               		
 940               	 ;  0 "" 2
 941               	/* #NOAPP */
 942               	.L58:
 943               	.LM154:
 944 0408 07B6      		in __tmp_reg__,87-32
 945 040a 00FC      		sbrc __tmp_reg__,0
 946 040c 00C0      		rjmp .L58
 947               	.LM155:
 948 040e 20E8      		ldi r18,lo8(128)
 949 0410 30E0      		ldi r19,hi8(128)
 950               	.LVL74:
 951 0412 620E      		add r6,r18
 952 0414 731E      		adc r7,r19
 953               	.LVL75:
 954               	.L57:
 955               	.LBE46:
 956               	.LBB47:
 957               	.LBB45:
 958               	.LM156:
 959 0416 A701      		movw r20,r14
 960               	.LM157:
 961 0418 D101      		movw r26,r2
 962               	.L59:
 963               	.LVL76:
 964               	.LBE45:
 965               	.LBE47:
 966               	.LBB48:
 967               	.LM158:
 968 041a 2C91      		ld r18,X
 969               	.LVL77:
 970               	.LM159:
 971 041c 1196      		adiw r26,1
 972 041e 3C91      		ld r19,X
 973 0420 1197      		sbiw r26,1
 974               	.LVL78:
 975               	.LM160:
 976 0422 1296      		adiw r26,2
 977               	.LVL79:
 978               	.LM161:
 979 0424 732F      		mov r23,r19
 980 0426 60E0      		ldi r22,lo8(0)
 981 0428 30E0      		ldi r19,lo8(0)
 982 042a 262B      		or r18,r22
 983 042c 372B      		or r19,r23
 984               	.LM162:
 985 042e 11E0      		ldi r17,lo8(1)
 986 0430 FA01      		movw r30,r20
 987               	/* #APP */
 988               	 ;  699 "stk500boot.c" 1
 989 0432 0901      		movw  r0, r18
 990 0434 1093 5700 		sts 87, r17
 991 0438 E895      		spm
 992 043a 1124      		clr  r1
 993               		
 994               	 ;  0 "" 2
 995               	.LM163:
 996               	/* #NOAPP */
 997 043c 4E5F      		subi r20,lo8(-(2))
 998 043e 5F4F      		sbci r21,hi8(-(2))
 999               	.LVL80:
 1000               	.LM164:
 1001 0440 0297      		sbiw r24,2
 1002               	.LVL81:
 1003               	.LM165:
 1004 0442 01F4      		brne .L59
 1005 0444 CC5D      		subi r28,lo8(-292)
 1006 0446 DE4F      		sbci r29,hi8(-292)
 1007 0448 7983      		std Y+1,r23
 1008 044a 6883      		st Y,r22
 1009 044c C452      		subi r28,lo8(292)
 1010 044e D140      		sbci r29,hi8(292)
 1011               	.LM166:
 1012 0450 15E0      		ldi r17,lo8(5)
 1013 0452 F701      		movw r30,r14
 1014               	/* #APP */
 1015               	 ;  705 "stk500boot.c" 1
 1016 0454 1093 5700 		sts 87, r17
 1017 0458 E895      		spm
 1018               		
 1019               	 ;  0 "" 2
 1020               	/* #NOAPP */
 1021               	.L60:
 1022               	.LM167:
 1023 045a 07B6      		in __tmp_reg__,87-32
 1024 045c 00FC      		sbrc __tmp_reg__,0
 1025 045e 00C0      		rjmp .L60
 1026               	.LM168:
 1027 0460 21E1      		ldi r18,lo8(17)
 1028               	/* #APP */
 1029               	 ;  707 "stk500boot.c" 1
 1030 0462 2093 5700 		sts 87, r18
 1031 0466 E895      		spm
 1032               		
 1033               	 ;  0 "" 2
 1034               	/* #NOAPP */
 1035 0468 00C0      		rjmp .L61
 1036               	.LVL82:
 1037               	.L56:
 1038               	.LM169:
 1039 046a AC01      		movw r20,r24
 1040 046c 9701      		movw r18,r14
 1041               	.LVL83:
 1042               	.LM170:
 1043 046e F101      		movw r30,r2
 1044               	.LVL84:
 1045               	.L63:
 1046               	.LM171:
 1047               	/* #APP */
 1048               	 ;  713 "stk500boot.c" 1
 1049 0470 A895      		wdr
 1050               	 ;  0 "" 2
 1051               	.LM172:
 1052               	/* #NOAPP */
 1053 0472 21BD      		out 65-32,r18
 1054               	.LM173:
 1055 0474 32BD      		out 66-32,r19
 1056               	.LM174:
 1057 0476 2F5F      		subi r18,lo8(-(1))
 1058 0478 3F4F      		sbci r19,hi8(-(1))
 1059               	.LVL85:
 1060               	.LM175:
 1061 047a 6191      		ld r22,Z+
 1062               	.LVL86:
 1063 047c 60BD      		out 64-32,r22
 1064               	.LVL87:
 1065               	.LM176:
 1066 047e FA9A      		sbi 63-32,2
 1067               	.LM177:
 1068 0480 F99A      		sbi 63-32,1
 1069               	.L62:
 1070               	.LM178:
 1071 0482 F999      		sbic 63-32,1
 1072 0484 00C0      		rjmp .L62
 1073               	.LM179:
 1074 0486 4150      		subi r20,lo8(-(-1))
 1075 0488 5040      		sbci r21,hi8(-(-1))
 1076               	.LVL88:
 1077               	.LM180:
 1078 048a 01F4      		brne .L63
 1079 048c A701      		movw r20,r14
 1080               	.LVL89:
 1081 048e 480F      		add r20,r24
 1082 0490 591F      		adc r21,r25
 1083               	.LVL90:
 1084               	.L61:
 1085               	.LM181:
 1086 0492 1A82      		std Y+2,__zero_reg__
 1087               	.LBE48:
 1088               	.LM182:
 1089 0494 7A01      		movw r14,r20
 1090 0496 00C0      		rjmp .L103
 1091               	.LVL91:
 1092               	.L41:
 1093               	.LBB49:
 1094               	.LM183:
 1095 0498 3A81      		ldd r19,Y+2
 1096 049a CD5D      		subi r28,lo8(-291)
 1097 049c DE4F      		sbci r29,hi8(-291)
 1098 049e 3883      		st Y,r19
 1099 04a0 C352      		subi r28,lo8(291)
 1100 04a2 D140      		sbci r29,hi8(291)
 1101 04a4 CE5D      		subi r28,lo8(-290)
 1102 04a6 DE4F      		sbci r29,hi8(-290)
 1103 04a8 1882      		st Y,__zero_reg__
 1104 04aa C252      		subi r28,lo8(290)
 1105 04ac D140      		sbci r29,hi8(290)
 1106 04ae 2B81      		ldd r18,Y+3
 1107               	.LVL92:
 1108 04b0 30E0      		ldi r19,lo8(0)
 1109 04b2 CE5D      		subi r28,lo8(-290)
 1110 04b4 DE4F      		sbci r29,hi8(-290)
 1111 04b6 8881      		ld r24,Y
 1112 04b8 9981      		ldd r25,Y+1
 1113 04ba C252      		subi r28,lo8(290)
 1114 04bc D140      		sbci r29,hi8(290)
 1115 04be 282B      		or r18,r24
 1116 04c0 392B      		or r19,r25
 1117               	.LVL93:
 1118               	.LM184:
 1119 04c2 8901      		movw r16,r18
 1120 04c4 0D5F      		subi r16,lo8(-(3))
 1121 04c6 1F4F      		sbci r17,hi8(-(3))
 1122               	.LVL94:
 1123               	.LM185:
 1124 04c8 1A82      		std Y+2,__zero_reg__
 1125               	.LVL95:
 1126               	.LM186:
 1127 04ca 4431      		cpi r20,lo8(20)
 1128 04cc 01F4      		brne .L64
 1129               	.LM187:
 1130 04ce DE01      		movw r26,r28
 1131 04d0 1396      		adiw r26,3
 1132 04d2 A701      		movw r20,r14
 1133               	.L65:
 1134               	.LVL96:
 1135               	.LBB50:
 1136               	.LM188:
 1137               	/* #APP */
 1138               	 ;  745 "stk500boot.c" 1
 1139 04d4 A895      		wdr
 1140               	 ;  0 "" 2
 1141               	.LVL97:
 1142               	/* #NOAPP */
 1143               	.LBB51:
 1144               	.LM189:
 1145 04d6 FA01      		movw r30,r20
 1146               	/* #APP */
 1147               	 ;  746 "stk500boot.c" 1
 1148 04d8 8591      		lpm r24, Z+
 1149 04da 9491      		lpm r25, Z
 1150               		
 1151               	 ;  0 "" 2
 1152               	.LVL98:
 1153               	/* #NOAPP */
 1154               	.LBE51:
 1155               	.LM190:
 1156 04dc 8C93      		st X,r24
 1157               	.LVL99:
 1158               	.LM191:
 1159 04de 1196      		adiw r26,1
 1160 04e0 9C93      		st X,r25
 1161 04e2 1197      		sbiw r26,1
 1162               	.LM192:
 1163 04e4 1296      		adiw r26,2
 1164               	.LVL100:
 1165               	.LM193:
 1166 04e6 4E5F      		subi r20,lo8(-(2))
 1167 04e8 5F4F      		sbci r21,hi8(-(2))
 1168               	.LVL101:
 1169               	.LM194:
 1170 04ea 2250      		subi r18,lo8(-(-2))
 1171 04ec 3040      		sbci r19,hi8(-(-2))
 1172               	.LVL102:
 1173               	.LM195:
 1174 04ee 01F4      		brne .L65
 1175 04f0 7A01      		movw r14,r20
 1176 04f2 00C0      		rjmp .L66
 1177               	.LVL103:
 1178               	.L64:
 1179               	.LM196:
 1180 04f4 CE01      		movw r24,r28
 1181 04f6 0396      		adiw r24,3
 1182 04f8 E82F      		mov r30,r24
 1183 04fa 692F      		mov r22,r25
 1184               	.LBE50:
 1185               	.LM197:
 1186 04fc C901      		movw r24,r18
 1187 04fe A701      		movw r20,r14
 1188               	.LVL104:
 1189               	.L67:
 1190               	.LM198:
 1191 0500 41BD      		out 65-32,r20
 1192               	.LM199:
 1193 0502 52BD      		out 66-32,r21
 1194               	.LM200:
 1195 0504 4F5F      		subi r20,lo8(-(1))
 1196 0506 5F4F      		sbci r21,hi8(-(1))
 1197               	.LVL105:
 1198               	.LM201:
 1199 0508 F89A      		sbi 63-32,0
 1200               	.LM202:
 1201 050a 70B5      		in r23,64-32
 1202 050c AE2F      		mov r26,r30
 1203 050e B62F      		mov r27,r22
 1204 0510 7D93      		st X+,r23
 1205 0512 BD01      		movw r22,r26
 1206 0514 EA2F      		mov r30,r26
 1207 0516 672F      		mov r22,r23
 1208               	.LVL106:
 1209               	.LM203:
 1210 0518 0197      		sbiw r24,1
 1211               	.LVL107:
 1212               	.LM204:
 1213 051a 01F4      		brne .L67
 1214               	.LM205:
 1215 051c E20E      		add r14,r18
 1216 051e F31E      		adc r15,r19
 1217               	.LVL108:
 1218               	.L66:
 1219               	.LM206:
 1220 0520 1C92      		st X,__zero_reg__
 1221               	.LVL109:
 1222               	.LBE49:
 1223               	.LM207:
 1224 0522 90E0      		ldi r25,lo8(0)
 1225 0524 00C0      		rjmp .L50
 1226               	.LVL110:
 1227               	.L33:
 1228               	.LM208:
 1229 0526 90EC      		ldi r25,lo8(-64)
 1230 0528 9A83      		std Y+2,r25
 1231               	.LVL111:
 1232               	.L103:
 1233               	.LM209:
 1234 052a 90E0      		ldi r25,lo8(0)
 1235               	.L99:
 1236               	.LM210:
 1237 052c 02E0      		ldi r16,lo8(2)
 1238 052e 10E0      		ldi r17,hi8(2)
 1239               	.LVL112:
 1240               	.L50:
 1241               	.LM211:
 1242 0530 8BE1      		ldi r24,lo8(27)
 1243 0532 C75D      		subi r28,lo8(-297)
 1244 0534 DE4F      		sbci r29,hi8(-297)
 1245 0536 9883      		st Y,r25
 1246 0538 C952      		subi r28,lo8(297)
 1247 053a D140      		sbci r29,hi8(297)
 1248 053c 0E94 0000 		call sendchar
 1249               	.LVL113:
 1250               	.LM212:
 1251 0540 892D      		mov r24,r9
 1252 0542 0E94 0000 		call sendchar
 1253               	.LVL114:
 1254               	.LM213:
 1255 0546 812F      		mov r24,r17
 1256 0548 0E94 0000 		call sendchar
 1257               	.LVL115:
 1258               	.LM214:
 1259 054c 802F      		mov r24,r16
 1260 054e 0E94 0000 		call sendchar
 1261               	.LVL116:
 1262               	.LM215:
 1263 0552 8EE0      		ldi r24,lo8(14)
 1264 0554 0E94 0000 		call sendchar
 1265               	.LM216:
 1266 0558 95E1      		ldi r25,lo8(21)
 1267 055a 892E      		mov r8,r25
 1268 055c 8924      		eor r8,r9
 1269               	.LM217:
 1270 055e 8026      		eor r8,r16
 1271               	.LM218:
 1272 0560 8126      		eor r8,r17
 1273               	.LVL117:
 1274               	.LM219:
 1275 0562 5201      		movw r10,r4
 1276 0564 00C0      		rjmp .L101
 1277               	.LVL118:
 1278               	.L69:
 1279               	.LM220:
 1280 0566 F501      		movw r30,r10
 1281 0568 2191      		ld r18,Z+
 1282 056a 5F01      		movw r10,r30
 1283               	.LVL119:
 1284               	.LM221:
 1285 056c 822F      		mov r24,r18
 1286 056e C85D      		subi r28,lo8(-296)
 1287 0570 DE4F      		sbci r29,hi8(-296)
 1288 0572 2883      		st Y,r18
 1289 0574 C852      		subi r28,lo8(296)
 1290 0576 D140      		sbci r29,hi8(296)
 1291 0578 C75D      		subi r28,lo8(-297)
 1292 057a DE4F      		sbci r29,hi8(-297)
 1293 057c 9883      		st Y,r25
 1294 057e C952      		subi r28,lo8(297)
 1295 0580 D140      		sbci r29,hi8(297)
 1296 0582 0E94 0000 		call sendchar
 1297               	.LVL120:
 1298               	.LM222:
 1299 0586 C85D      		subi r28,lo8(-296)
 1300 0588 DE4F      		sbci r29,hi8(-296)
 1301 058a 2881      		ld r18,Y
 1302 058c C852      		subi r28,lo8(296)
 1303 058e D140      		sbci r29,hi8(296)
 1304 0590 8226      		eor r8,r18
 1305               	.LVL121:
 1306               	.LM223:
 1307 0592 0150      		subi r16,lo8(-(-1))
 1308 0594 1040      		sbci r17,hi8(-(-1))
 1309               	.LVL122:
 1310               	.LM224:
 1311               	/* #APP */
 1312               	 ;  802 "stk500boot.c" 1
 1313 0596 A895      		wdr
 1314               	 ;  0 "" 2
 1315               	.LVL123:
 1316               	/* #NOAPP */
 1317               	.L101:
 1318 0598 C75D      		subi r28,lo8(-297)
 1319 059a DE4F      		sbci r29,hi8(-297)
 1320 059c 9881      		ld r25,Y
 1321 059e C952      		subi r28,lo8(297)
 1322 05a0 D140      		sbci r29,hi8(297)
 1323               	.LVL124:
 1324               	.LM225:
 1325 05a2 0115      		cp r16,__zero_reg__
 1326 05a4 1105      		cpc r17,__zero_reg__
 1327 05a6 01F4      		brne .L69
 1328               	.LM226:
 1329 05a8 882D      		mov r24,r8
 1330 05aa C75D      		subi r28,lo8(-297)
 1331 05ac DE4F      		sbci r29,hi8(-297)
 1332 05ae 9883      		st Y,r25
 1333 05b0 C952      		subi r28,lo8(297)
 1334 05b2 D140      		sbci r29,hi8(297)
 1335 05b4 0E94 0000 		call sendchar
 1336               	.LVL125:
 1337               	.LM227:
 1338 05b8 C75D      		subi r28,lo8(-297)
 1339 05ba DE4F      		sbci r29,hi8(-297)
 1340 05bc 9881      		ld r25,Y
 1341 05be C952      		subi r28,lo8(297)
 1342 05c0 D140      		sbci r29,hi8(297)
 1343 05c2 9923      		tst r25
 1344 05c4 01F4      		brne .L13
 1345               	.LM228:
 1346 05c6 9394      		inc r9
 1347               	.LVL126:
 1348 05c8 20E0      		ldi r18,lo8(0)
 1349 05ca 30E0      		ldi r19,hi8(0)
 1350 05cc 00C0      		rjmp .L70
 1351               	.LVL127:
 1352               	.L13:
 1353               	.LM229:
 1354               	/* #APP */
 1355               	 ;  812 "stk500boot.c" 1
 1356 05ce 0000      		nop
 1357               	 ;  0 "" 2
 1358               	.LM230:
 1359               	/* #NOAPP */
 1360 05d0 8091 C000 		lds r24,192
 1361 05d4 8D7F      		andi r24,lo8(-3)
 1362 05d6 8093 C000 		sts 192,r24
 1363               	.LM231:
 1364 05da 81E1      		ldi r24,lo8(17)
 1365               	/* #APP */
 1366               	 ;  819 "stk500boot.c" 1
 1367 05dc 8093 5700 		sts 87, r24
 1368 05e0 E895      		spm
 1369               		
 1370               	 ;  0 "" 2
 1371               	.LM232:
 1372               	 ;  822 "stk500boot.c" 1
 1373 05e2 EE27      		clr	r30		
 1374 05e4 FF27      		clr	r31		
 1375 05e6 0994      		ijmp	
 1376               		
 1377               	 ;  0 "" 2
 1378               	/* #NOAPP */
 1379               	.L71:
 1380 05e8 00C0      		rjmp .L71
 1381               	.LVL128:
 1382               	.L106:
 1383               	.LM233:
 1384 05ea 8BE1      		ldi r24,lo8(27)
 1385 05ec 882E      		mov r8,r24
 1386               	.LM234:
 1387 05ee 81E0      		ldi r24,lo8(1)
 1388 05f0 00C0      		rjmp .L32
 1389               	.L75:
 1390               	.LM235:
 1391 05f2 80E0      		ldi r24,lo8(0)
 1392 05f4 00C0      		rjmp .L32
 1393               	.LVL129:
 1394               	.L107:
 1395               	.LM236:
 1396 05f6 86E0      		ldi r24,lo8(6)
 1397               	.LVL130:
 1398 05f8 00C0      		rjmp .L32
 1399               	.LFE10:
 1401               		.data
 1404               	CSWTCH.6:
 1405 0000 00        		.byte	0
 1406 0001 00        		.byte	0
 1407 0002 00        		.byte	0
 1408 0003 00        		.byte	0
 1409 0004 00        		.byte	0
 1410 0005 00        		.byte	0
 1411 0006 00        		.byte	0
 1412 0007 00        		.byte	0
 1413 0008 00        		.byte	0
 1414 0009 00        		.byte	0
 1415 000a 00        		.byte	0
 1416 000b 00        		.byte	0
 1417 000c 00        		.byte	0
 1418 000d 00        		.byte	0
 1419 000e 00        		.byte	0
 1420 000f 00        		.byte	0
 1421 0010 02        		.byte	2
 1422 0011 02        		.byte	2
 1423 0012 0A        		.byte	10
 1464               	.Letext0:
DEFINED SYMBOLS
                            *ABS*:0000000000000000 stk500boot.c
     /tmp/cc0ETDsF.s:2      *ABS*:000000000000003f __SREG__
     /tmp/cc0ETDsF.s:3      *ABS*:000000000000003e __SP_H__
     /tmp/cc0ETDsF.s:4      *ABS*:000000000000003d __SP_L__
     /tmp/cc0ETDsF.s:5      *ABS*:0000000000000034 __CCP__
     /tmp/cc0ETDsF.s:6      *ABS*:0000000000000000 __tmp_reg__
     /tmp/cc0ETDsF.s:7      *ABS*:0000000000000001 __zero_reg__
     /tmp/cc0ETDsF.s:17     .text:0000000000000000 sendchar
     /tmp/cc0ETDsF.s:45     .init9:0000000000000000 __jumpMain
     /tmp/cc0ETDsF.s:55     *ABS*:00000000000008ff __stack
     /tmp/cc0ETDsF.s:93     .text:0000000000000018 main
     /tmp/cc0ETDsF.s:1404   .data:0000000000000000 CSWTCH.6

UNDEFINED SYMBOLS
__do_copy_data
