   1               		.file	"stk500boot.c"
   2               	__SREG__ = 0x3f
   3               	__SP_H__ = 0x3e
   4               	__SP_L__ = 0x3d
   5               	__CCP__ = 0x34
   6               	__tmp_reg__ = 0
   7               	__zero_reg__ = 1
  15               	.Ltext0:
  17               	sendchar:
  18               	.LFB7:
  19               	.LM1:
  20               	.LVL0:
  21               	/* prologue: function */
  22               	/* frame size = 0 */
  23               	/* stack size = 0 */
  24               	.L__stack_usage = 0
  25               	.LM2:
  26 0000 8093 C600 		sts 198,r24
  27               	.LVL1:
  28               	.L2:
  29               	.LM3:
  30 0004 8091 C000 		lds r24,192
  31 0008 86FF      		sbrs r24,6
  32 000a 00C0      		rjmp .L2
  33               	.LM4:
  34 000c 8091 C000 		lds r24,192
  35 0010 8064      		ori r24,lo8(64)
  36 0012 8093 C000 		sts 192,r24
  37               	/* epilogue start */
  38               	.LM5:
  39 0016 0895      		ret
  40               	.LFE7:
  42               		.section	.init9,"ax",@progbits
  43               	.global	__jumpMain
  45               	__jumpMain:
  46               	.LFB6:
  47               	.LSM0:
  48               	/* prologue: naked */
  49               	/* frame size = 0 */
  50               	/* stack size = 0 */
  51               	.L__stack_usage = 0
  52               	.LSM1:
  53               	/* #APP */
  54               	 ;  316 "stk500boot.c" 1
  55               		.set __stack, 2303
  56               	 ;  0 "" 2
  57               	.LSM2:
  58               	 ;  319 "stk500boot.c" 1
  59 0000 8FEF      		ldi r24,255
  60               	 ;  0 "" 2
  61               	.LSM3:
  62               	 ;  320 "stk500boot.c" 1
  63 0002 98E0      		ldi r25,8
  64               	 ;  0 "" 2
  65               	.LSM4:
  66               	 ;  321 "stk500boot.c" 1
  67 0004 9EBF      		out __SP_H__,r25
  68               	 ;  0 "" 2
  69               	.LSM5:
  70               	 ;  322 "stk500boot.c" 1
  71 0006 8DBF      		out __SP_L__,r24
  72               	 ;  0 "" 2
  73               	.LSM6:
  74               	 ;  324 "stk500boot.c" 1
  75 0008 1124      		clr __zero_reg__
  76               	 ;  0 "" 2
  77               	.LSM7:
  78               	 ;  325 "stk500boot.c" 1
  79 000a 1FBE      		out 63, __zero_reg__
  80               	 ;  0 "" 2
  81               	.LSM8:
  82               	 ;  329 "stk500boot.c" 1
  83 000c 00C0      		rjmp main
  84               	 ;  0 "" 2
  85               	/* epilogue start */
  86               	.LSM9:
  87               	/* #NOAPP */
  88               	.LFE6:
  90               		.text
  91               	.global	main
  93               	main:
  94               	.LFB9:
  95               	.LM6:
  96 0018 CDB7      		in r28,__SP_L__
  97 001a DEB7      		in r29,__SP_H__
  98 001c C552      		subi r28,lo8(-(-293))
  99 001e D140      		sbci r29,hi8(-(-293))
 100 0020 DEBF      		out __SP_H__, r29
 101 0022 CDBF      		out __SP_L__, r28
 102               	/* prologue: function */
 103               	/* frame size = 293 */
 104               	/* stack size = 293 */
 105               	.L__stack_usage = 293
 106               	.LVL2:
 107               	.LM7:
 108 0024 1092 C500 		sts 197,__zero_reg__
 109               	.LM8:
 110 0028 83E0      		ldi r24,lo8(3)
 111 002a 8093 C400 		sts 196,r24
 112               	.LM9:
 113 002e 98E1      		ldi r25,lo8(24)
 114 0030 9093 C100 		sts 193,r25
 115               	.LM10:
 116 0034 84B7      		in r24,84-32
 117               	.LM11:
 118 0036 84B7      		in r24,84-32
 119 0038 877F      		andi r24,lo8(-9)
 120 003a 84BF      		out 84-32,r24
 121               	.LM12:
 122               	/* #APP */
 123               	 ;  393 "stk500boot.c" 1
 124 003c 0FB6      		in __tmp_reg__, __SREG__
 125 003e F894      		cli
 126 0040 9093 6000 		sts 96, r25
 127 0044 1092 6000 		sts 96, __zero_reg__
 128 0048 0FBE      		out __SREG__,__tmp_reg__
 129               		
 130               	 ;  0 "" 2
 131               	.LVL3:
 132               	.LM13:
 133               	/* #NOAPP */
 134 004a 81E0      		ldi r24,lo8(1)
 135 004c 8983      		std Y+1,r24
 136               	.LM14:
 137 004e 1A82      		std Y+2,__zero_reg__
 138               	.LM15:
 139 0050 88E0      		ldi r24,lo8(8)
 140 0052 8B83      		std Y+3,r24
 141               	.LM16:
 142 0054 81E4      		ldi r24,lo8(65)
 143 0056 8C83      		std Y+4,r24
 144               	.LM17:
 145 0058 86E5      		ldi r24,lo8(86)
 146 005a 8D83      		std Y+5,r24
 147               	.LM18:
 148 005c 82E5      		ldi r24,lo8(82)
 149 005e 8E83      		std Y+6,r24
 150               	.LM19:
 151 0060 89E4      		ldi r24,lo8(73)
 152 0062 8F83      		std Y+7,r24
 153               	.LM20:
 154 0064 83E5      		ldi r24,lo8(83)
 155 0066 8887      		std Y+8,r24
 156               	.LM21:
 157 0068 80E5      		ldi r24,lo8(80)
 158 006a 8987      		std Y+9,r24
 159               	.LM22:
 160 006c 8FE5      		ldi r24,lo8(95)
 161 006e 8A87      		std Y+10,r24
 162               	.LM23:
 163 0070 82E3      		ldi r24,lo8(50)
 164 0072 8B87      		std Y+11,r24
 165               	.LM24:
 166 0074 8BE1      		ldi r24,lo8(27)
 167 0076 0E94 0000 		call sendchar
 168               	.LVL4:
 169               	.LM25:
 170 007a 81E0      		ldi r24,lo8(1)
 171 007c 0E94 0000 		call sendchar
 172               	.LVL5:
 173               	.LM26:
 174 0080 80E0      		ldi r24,lo8(0)
 175 0082 0E94 0000 		call sendchar
 176               	.LVL6:
 177               	.LM27:
 178 0086 8BE0      		ldi r24,lo8(11)
 179 0088 0E94 0000 		call sendchar
 180               	.LVL7:
 181               	.LM28:
 182 008c 8EE0      		ldi r24,lo8(14)
 183 008e 0E94 0000 		call sendchar
 184               	.LVL8:
 185               	.LM29:
 186 0092 3CE0      		ldi r19,lo8(12)
 187 0094 E32E      		mov r14,r19
 188 0096 F12C      		mov r15,__zero_reg__
 189 0098 EC0E      		add r14,r28
 190 009a FD1E      		adc r15,r29
 191               	.LM30:
 192 009c 8E01      		movw r16,r28
 193 009e 0F5F      		subi r16,lo8(-(1))
 194 00a0 1F4F      		sbci r17,hi8(-(1))
 195               	.LM31:
 196 00a2 2FE1      		ldi r18,lo8(31)
 197 00a4 522E      		mov r5,r18
 198               	.LVL9:
 199               	.L6:
 200               	.LM32:
 201 00a6 D801      		movw r26,r16
 202 00a8 CD90      		ld r12,X+
 203 00aa 8D01      		movw r16,r26
 204               	.LVL10:
 205               	.LM33:
 206 00ac 8C2D      		mov r24,r12
 207 00ae 0E94 0000 		call sendchar
 208               	.LVL11:
 209               	.LM34:
 210 00b2 5C24      		eor r5,r12
 211               	.LVL12:
 212               	.LM35:
 213 00b4 0E15      		cp r16,r14
 214 00b6 1F05      		cpc r17,r15
 215 00b8 01F4      		brne .L6
 216               	.LM36:
 217 00ba 852D      		mov r24,r5
 218 00bc 0E94 0000 		call sendchar
 219               	.LVL13:
 220               	.LBB18:
 221               	.LBB19:
 222               	.LM37:
 223 00c0 8FEF      		 ldi r24,lo8(159999)
 224 00c2 90E7      	    ldi r25,hi8(159999)
 225 00c4 A2E0      	    ldi r26,hlo8(159999)
 226 00c6 8150      	    1:subi r24,1
 227 00c8 9040      	    sbci r25,0
 228 00ca A040      	    sbci r26,0
 229 00cc 01F4      	    brne 1b
 230 00ce 00C0      		rjmp .
 231 00d0 0000      		nop
 232               	.LBE19:
 233               	.LBE18:
 234               	.LM38:
 235 00d2 8091 C000 		lds r24,192
 236 00d6 87FF      		sbrs r24,7
 237 00d8 00C0      		rjmp .L54
 238               	.LBB20:
 239               	.LM39:
 240 00da 8091 C600 		lds r24,198
 241 00de 00C0      		rjmp .L54
 242               	.LVL14:
 243               	.L73:
 244               	.LBE20:
 245               	.LBB21:
 246               	.LBB22:
 247               	.LM40:
 248 00e0 9091 C000 		lds r25,192
 249 00e4 97FF      		sbrs r25,7
 250 00e6 00C0      		rjmp .L73
 251               	.LM41:
 252 00e8 4091 C600 		lds r20,198
 253               	.LBE22:
 254               	.LBE21:
 255               	.LM42:
 256 00ec 8330      		cpi r24,lo8(3)
 257 00ee 01F0      		breq .L12
 258 00f0 8430      		cpi r24,lo8(4)
 259 00f2 00F4      		brsh .L16
 260 00f4 8130      		cpi r24,lo8(1)
 261 00f6 01F0      		breq .L10
 262 00f8 8230      		cpi r24,lo8(2)
 263 00fa 00F4      		brsh .L11
 264 00fc 00C0      		rjmp .L85
 265               	.L16:
 266 00fe 8530      		cpi r24,lo8(5)
 267 0100 01F0      		breq .L14
 268 0102 8530      		cpi r24,lo8(5)
 269 0104 00F0      		brlo .L13
 270 0106 8630      		cpi r24,lo8(6)
 271 0108 01F4      		brne .L73
 272 010a 00C0      		rjmp .L86
 273               	.L85:
 274               	.LM43:
 275 010c 4B31      		cpi r20,lo8(27)
 276 010e 01F4      		brne .L75
 277 0110 00C0      		rjmp .L87
 278               	.L10:
 279               	.LM44:
 280 0112 4130      		cpi r20,lo8(1)
 281 0114 01F0      		breq .L18
 282               	.LM45:
 283 0116 4B15      		cp r20,r11
 284 0118 01F0      		breq .+2
 285 011a 00C0      		rjmp .L79
 286               	.L18:
 287               	.LVL15:
 288               	.LM46:
 289 011c 5426      		eor r5,r20
 290               	.LVL16:
 291               	.LM47:
 292 011e B42E      		mov r11,r20
 293               	.LM48:
 294 0120 82E0      		ldi r24,lo8(2)
 295               	.LM49:
 296 0122 00C0      		rjmp .L73
 297               	.LVL17:
 298               	.L11:
 299               	.LM50:
 300 0124 342F      		mov r19,r20
 301 0126 20E0      		ldi r18,lo8(0)
 302               	.LVL18:
 303               	.LM51:
 304 0128 5426      		eor r5,r20
 305               	.LVL19:
 306               	.LM52:
 307 012a 83E0      		ldi r24,lo8(3)
 308               	.LM53:
 309 012c 00C0      		rjmp .L73
 310               	.LVL20:
 311               	.L12:
 312               	.LM54:
 313 012e 842F      		mov r24,r20
 314 0130 90E0      		ldi r25,lo8(0)
 315 0132 282B      		or r18,r24
 316 0134 392B      		or r19,r25
 317               	.LVL21:
 318               	.LM55:
 319 0136 5426      		eor r5,r20
 320               	.LVL22:
 321               	.LM56:
 322 0138 84E0      		ldi r24,lo8(4)
 323               	.LM57:
 324 013a 00C0      		rjmp .L73
 325               	.LVL23:
 326               	.L13:
 327               	.LM58:
 328 013c 4E30      		cpi r20,lo8(14)
 329 013e 01F0      		breq .+2
 330 0140 00C0      		rjmp .L79
 331               	.LVL24:
 332               	.LM59:
 333 0142 5426      		eor r5,r20
 334               	.LVL25:
 335               	.LM60:
 336 0144 8824      		clr r8
 337 0146 9924      		clr r9
 338               	.LM61:
 339 0148 85E0      		ldi r24,lo8(5)
 340 014a 00C0      		rjmp .L73
 341               	.LVL26:
 342               	.L14:
 343               	.LM62:
 344 014c F101      		movw r30,r2
 345 014e E80D      		add r30,r8
 346 0150 F91D      		adc r31,r9
 347 0152 4083      		st Z,r20
 348 0154 0894      		sec
 349 0156 811C      		adc r8,__zero_reg__
 350 0158 911C      		adc r9,__zero_reg__
 351               	.LVL27:
 352               	.LM63:
 353 015a 5426      		eor r5,r20
 354               	.LVL28:
 355               	.LM64:
 356 015c 8216      		cp r8,r18
 357 015e 9306      		cpc r9,r19
 358 0160 01F0      		breq .+2
 359 0162 00C0      		rjmp .L73
 360 0164 00C0      		rjmp .L88
 361               	.LVL29:
 362               	.L86:
 363               	.LM65:
 364 0166 4515      		cp r20,r5
 365 0168 01F0      		breq .+2
 366 016a 00C0      		rjmp .L79
 367 016c 00C0      		rjmp .L76
 368               	.L87:
 369               	.LM66:
 370 016e 9BE1      		ldi r25,lo8(27)
 371 0170 592E      		mov r5,r25
 372               	.LM67:
 373 0172 81E0      		ldi r24,lo8(1)
 374 0174 00C0      		rjmp .L73
 375               	.LVL30:
 376               	.L88:
 377               	.LM68:
 378 0176 86E0      		ldi r24,lo8(6)
 379 0178 00C0      		rjmp .L73
 380               	.LVL31:
 381               	.L75:
 382               	.LM69:
 383 017a 8730      		cpi r24,lo8(7)
 384 017c 01F0      		breq .+2
 385 017e 00C0      		rjmp .L73
 386               	.LVL32:
 387               	.L76:
 388               	.LM70:
 389 0180 4981      		ldd r20,Y+1
 390 0182 4231      		cpi r20,lo8(18)
 391 0184 01F4      		brne .+2
 392 0186 00C0      		rjmp .L25
 393 0188 4331      		cpi r20,lo8(19)
 394 018a 00F4      		brsh .L31
 395 018c 4330      		cpi r20,lo8(3)
 396 018e 01F4      		brne .+2
 397 0190 00C0      		rjmp .L23
 398 0192 4430      		cpi r20,lo8(4)
 399 0194 00F4      		brsh .L32
 400 0196 4130      		cpi r20,lo8(1)
 401 0198 01F0      		breq .L21
 402 019a 4230      		cpi r20,lo8(2)
 403 019c 01F0      		breq .+2
 404 019e 00C0      		rjmp .L20
 405 01a0 00C0      		rjmp .L84
 406               	.L32:
 407 01a2 4630      		cpi r20,lo8(6)
 408 01a4 01F4      		brne .+2
 409 01a6 00C0      		rjmp .L24
 410 01a8 4630      		cpi r20,lo8(6)
 411 01aa 00F4      		brsh .+2
 412 01ac 00C0      		rjmp .L20
 413 01ae 4031      		cpi r20,lo8(16)
 414 01b0 00F4      		brsh .+2
 415 01b2 00C0      		rjmp .L20
 416 01b4 00C0      		rjmp .L84
 417               	.L31:
 418 01b6 4631      		cpi r20,lo8(22)
 419 01b8 01F4      		brne .+2
 420 01ba 00C0      		rjmp .L27
 421 01bc 4731      		cpi r20,lo8(23)
 422 01be 00F4      		brsh .L33
 423 01c0 4431      		cpi r20,lo8(20)
 424 01c2 01F4      		brne .+2
 425 01c4 00C0      		rjmp .L27
 426               	.LBB23:
 427               	.LM71:
 428 01c6 9A81      		ldd r25,Y+2
 429 01c8 CF5D      		subi r28,lo8(-289)
 430 01ca DE4F      		sbci r29,hi8(-289)
 431 01cc 9883      		st Y,r25
 432 01ce C152      		subi r28,lo8(289)
 433 01d0 D140      		sbci r29,hi8(289)
 434 01d2 C05E      		subi r28,lo8(-288)
 435 01d4 DE4F      		sbci r29,hi8(-288)
 436 01d6 1882      		st Y,__zero_reg__
 437 01d8 C052      		subi r28,lo8(288)
 438 01da D140      		sbci r29,hi8(288)
 439 01dc 8B81      		ldd r24,Y+3
 440 01de 90E0      		ldi r25,lo8(0)
 441 01e0 C05E      		subi r28,lo8(-288)
 442 01e2 DE4F      		sbci r29,hi8(-288)
 443 01e4 A881      		ld r26,Y
 444 01e6 B981      		ldd r27,Y+1
 445 01e8 C052      		subi r28,lo8(288)
 446 01ea D140      		sbci r29,hi8(288)
 447 01ec 8A2B      		or r24,r26
 448 01ee 9B2B      		or r25,r27
 449               	.LVL33:
 450               	.LM72:
 451 01f0 4331      		cpi r20,lo8(19)
 452 01f2 01F0      		breq .+2
 453 01f4 00C0      		rjmp .L40
 454               	.LVL34:
 455 01f6 00C0      		rjmp .L89
 456               	.LVL35:
 457               	.L33:
 458               	.LBE23:
 459               	.LM73:
 460 01f8 4A31      		cpi r20,lo8(26)
 461 01fa 01F0      		breq .L29
 462 01fc 4B31      		cpi r20,lo8(27)
 463 01fe 01F0      		breq .L30
 464 0200 4831      		cpi r20,lo8(24)
 465 0202 01F0      		breq .+2
 466 0204 00C0      		rjmp .L20
 467 0206 00C0      		rjmp .L90
 468               	.L21:
 469               	.LVL36:
 470               	.LM74:
 471 0208 1A82      		std Y+2,__zero_reg__
 472               	.LM75:
 473 020a B8E0      		ldi r27,lo8(8)
 474 020c BB83      		std Y+3,r27
 475               	.LM76:
 476 020e 81E4      		ldi r24,lo8(65)
 477 0210 8C83      		std Y+4,r24
 478               	.LM77:
 479 0212 86E5      		ldi r24,lo8(86)
 480 0214 8D83      		std Y+5,r24
 481               	.LM78:
 482 0216 82E5      		ldi r24,lo8(82)
 483 0218 8E83      		std Y+6,r24
 484               	.LM79:
 485 021a 89E4      		ldi r24,lo8(73)
 486 021c 8F83      		std Y+7,r24
 487               	.LM80:
 488 021e 83E5      		ldi r24,lo8(83)
 489 0220 8887      		std Y+8,r24
 490               	.LM81:
 491 0222 80E5      		ldi r24,lo8(80)
 492 0224 8987      		std Y+9,r24
 493               	.LM82:
 494 0226 8FE5      		ldi r24,lo8(95)
 495 0228 8A87      		std Y+10,r24
 496               	.LM83:
 497 022a 82E3      		ldi r24,lo8(50)
 498 022c 8B87      		std Y+11,r24
 499               	.LM84:
 500 022e 8BE0      		ldi r24,lo8(11)
 501 0230 E82E      		mov r14,r24
 502 0232 F12C      		mov r15,__zero_reg__
 503               	.LM85:
 504 0234 00C0      		rjmp .L34
 505               	.LVL37:
 506               	.L23:
 507               	.LBB24:
 508               	.LM86:
 509 0236 EA81      		ldd r30,Y+2
 510 0238 E058      		subi r30,lo8(-(-128))
 511 023a E331      		cpi r30,lo8(19)
 512 023c 00F4      		brsh .L60
 513 023e F0E0      		ldi r31,lo8(0)
 514 0240 E050      		subi r30,lo8(-(CSWTCH.5))
 515 0242 F040      		sbci r31,hi8(-(CSWTCH.5))
 516 0244 8081      		ld r24,Z
 517 0246 00C0      		rjmp .L35
 518               	.L60:
 519 0248 80E0      		ldi r24,lo8(0)
 520               	.L35:
 521               	.LVL38:
 522               	.LM87:
 523 024a 1A82      		std Y+2,__zero_reg__
 524               	.LM88:
 525 024c 8B83      		std Y+3,r24
 526               	.LBE24:
 527               	.LM89:
 528 024e B3E0      		ldi r27,lo8(3)
 529 0250 EB2E      		mov r14,r27
 530 0252 F12C      		mov r15,__zero_reg__
 531               	.LM90:
 532 0254 00C0      		rjmp .L34
 533               	.LVL39:
 534               	.L30:
 535               	.LBB25:
 536               	.LM91:
 537 0256 8D81      		ldd r24,Y+5
 538               	.LVL40:
 539               	.LM92:
 540 0258 8823      		tst r24
 541 025a 01F0      		breq .L61
 542               	.LM93:
 543 025c 8130      		cpi r24,lo8(1)
 544 025e 01F4      		brne .L62
 545               	.LM94:
 546 0260 84E9      		ldi r24,lo8(-108)
 547 0262 00C0      		rjmp .L83
 548               	.L61:
 549               	.LM95:
 550 0264 8EE1      		ldi r24,lo8(30)
 551 0266 00C0      		rjmp .L83
 552               	.L62:
 553               	.LM96:
 554 0268 86E0      		ldi r24,lo8(6)
 555               	.LVL41:
 556 026a 00C0      		rjmp .L83
 557               	.LVL42:
 558               	.L29:
 559               	.LBE25:
 560               	.LM97:
 561 026c 1A82      		std Y+2,__zero_reg__
 562               	.LBB26:
 563               	.LM98:
 564 026e E1E0      		ldi r30,lo8(1)
 565 0270 F0E0      		ldi r31,hi8(1)
 566               	/* #APP */
 567               	 ;  668 "stk500boot.c" 1
 568 0272 A092 5700 		sts 87, r10
 569 0276 8491      		lpm r24, Z
 570               		
 571               	 ;  0 "" 2
 572               	/* #NOAPP */
 573               	.L82:
 574               	.LVL43:
 575               	.LBE26:
 576 0278 8B83      		std Y+3,r24
 577               	.LM99:
 578 027a 1C82      		std Y+4,__zero_reg__
 579               	.LM100:
 580 027c A4E0      		ldi r26,lo8(4)
 581 027e EA2E      		mov r14,r26
 582 0280 F12C      		mov r15,__zero_reg__
 583               	.LM101:
 584 0282 00C0      		rjmp .L34
 585               	.LVL44:
 586               	.L90:
 587               	.LBB27:
 588               	.LM102:
 589 0284 8B81      		ldd r24,Y+3
 590 0286 8035      		cpi r24,lo8(80)
 591 0288 01F4      		brne .L37
 592               	.LM103:
 593 028a 8C81      		ldd r24,Y+4
 594 028c 8830      		cpi r24,lo8(8)
 595 028e 01F4      		brne .L38
 596               	.LBB30:
 597               	.LM104:
 598 0290 E2E0      		ldi r30,lo8(2)
 599 0292 F0E0      		ldi r31,hi8(2)
 600 0294 00C0      		rjmp .L80
 601               	.L38:
 602               	.LBE30:
 603               	.LBB29:
 604               	.LM105:
 605 0296 E0E0      		ldi r30,lo8(0)
 606 0298 F0E0      		ldi r31,hi8(0)
 607 029a 00C0      		rjmp .L80
 608               	.L37:
 609               	.LBE29:
 610               	.LBB28:
 611               	.LM106:
 612 029c E3E0      		ldi r30,lo8(3)
 613 029e F0E0      		ldi r31,hi8(3)
 614               	.L80:
 615               	/* #APP */
 616               	 ;  685 "stk500boot.c" 1
 617 02a0 A092 5700 		sts 87, r10
 618 02a4 8491      		lpm r24, Z
 619               		
 620               	 ;  0 "" 2
 621               	/* #NOAPP */
 622               	.L83:
 623               	.LVL45:
 624               	.LBE28:
 625               	.LM107:
 626 02a6 1A82      		std Y+2,__zero_reg__
 627 02a8 00C0      		rjmp .L82
 628               	.LVL46:
 629               	.L25:
 630               	.LBE27:
 631               	.LM108:
 632 02aa 1A82      		std Y+2,__zero_reg__
 633               	.LM109:
 634 02ac F2E0      		ldi r31,lo8(2)
 635 02ae EF2E      		mov r14,r31
 636 02b0 F12C      		mov r15,__zero_reg__
 637               	.LM110:
 638 02b2 6624      		clr r6
 639 02b4 7724      		clr r7
 640               	.LM111:
 641 02b6 00C0      		rjmp .L34
 642               	.LVL47:
 643               	.L24:
 644               	.LM112:
 645 02b8 FC81      		ldd r31,Y+4
 646 02ba C15E      		subi r28,lo8(-287)
 647 02bc DE4F      		sbci r29,hi8(-287)
 648 02be F883      		st Y,r31
 649 02c0 CF51      		subi r28,lo8(287)
 650 02c2 D140      		sbci r29,hi8(287)
 651 02c4 C25E      		subi r28,lo8(-286)
 652 02c6 DE4F      		sbci r29,hi8(-286)
 653 02c8 1882      		st Y,__zero_reg__
 654 02ca CE51      		subi r28,lo8(286)
 655 02cc D140      		sbci r29,hi8(286)
 656 02ce 0D81      		ldd r16,Y+5
 657               	.LVL48:
 658 02d0 10E0      		ldi r17,lo8(0)
 659 02d2 C25E      		subi r28,lo8(-286)
 660 02d4 DE4F      		sbci r29,hi8(-286)
 661 02d6 2881      		ld r18,Y
 662 02d8 3981      		ldd r19,Y+1
 663 02da CE51      		subi r28,lo8(286)
 664 02dc D140      		sbci r29,hi8(286)
 665 02de 022B      		or r16,r18
 666 02e0 132B      		or r17,r19
 667 02e2 000F      		lsl r16
 668 02e4 111F      		rol r17
 669               	.L84:
 670               	.LVL49:
 671               	.LM113:
 672 02e6 1A82      		std Y+2,__zero_reg__
 673 02e8 00C0      		rjmp .L81
 674               	.LVL50:
 675               	.L89:
 676               	.LBB32:
 677               	.LM114:
 678 02ea 30E0      		ldi r19,lo8(30720)
 679 02ec 6316      		cp r6,r19
 680 02ee 38E7      		ldi r19,hi8(30720)
 681 02f0 7306      		cpc r7,r19
 682 02f2 00F4      		brsh .L41
 683               	.LM115:
 684 02f4 73E0      		ldi r23,lo8(3)
 685 02f6 F72E      		mov r15,r23
 686 02f8 F301      		movw r30,r6
 687               	/* #APP */
 688               	 ;  739 "stk500boot.c" 1
 689 02fa F092 5700 		sts 87, r15
 690 02fe E895      		spm
 691               		
 692               	 ;  0 "" 2
 693               	/* #NOAPP */
 694               	.L42:
 695               	.LM116:
 696 0300 07B6      		in __tmp_reg__,87-32
 697 0302 00FC      		sbrc __tmp_reg__,0
 698 0304 00C0      		rjmp .L42
 699               	.LM117:
 700 0306 20E8      		ldi r18,lo8(128)
 701 0308 30E0      		ldi r19,hi8(128)
 702 030a 620E      		add r6,r18
 703 030c 731E      		adc r7,r19
 704               	.LVL51:
 705               	.L41:
 706               	.LBE32:
 707               	.LBB33:
 708               	.LBB31:
 709               	.LM118:
 710 030e 9801      		movw r18,r16
 711               	.LM119:
 712 0310 DE01      		movw r26,r28
 713 0312 1B96      		adiw r26,11
 714               	.LVL52:
 715               	.L43:
 716               	.LBE31:
 717               	.LBE33:
 718               	.LBB34:
 719               	.LM120:
 720 0314 4C91      		ld r20,X
 721               	.LVL53:
 722               	.LM121:
 723 0316 1196      		adiw r26,1
 724 0318 5C91      		ld r21,X
 725 031a 1197      		sbiw r26,1
 726               	.LVL54:
 727               	.LM122:
 728 031c 1296      		adiw r26,2
 729               	.LVL55:
 730               	.LM123:
 731 031e 752F      		mov r23,r21
 732 0320 60E0      		ldi r22,lo8(0)
 733 0322 50E0      		ldi r21,lo8(0)
 734 0324 462B      		or r20,r22
 735 0326 572B      		or r21,r23
 736               	.LM124:
 737 0328 FF24      		clr r15
 738 032a F394      		inc r15
 739 032c F901      		movw r30,r18
 740               	/* #APP */
 741               	 ;  750 "stk500boot.c" 1
 742 032e 0A01      		movw  r0, r20
 743 0330 F092 5700 		sts 87, r15
 744 0334 E895      		spm
 745 0336 1124      		clr  r1
 746               		
 747               	 ;  0 "" 2
 748               	.LM125:
 749               	/* #NOAPP */
 750 0338 2E5F      		subi r18,lo8(-(2))
 751 033a 3F4F      		sbci r19,hi8(-(2))
 752               	.LVL56:
 753               	.LM126:
 754 033c 0297      		sbiw r24,2
 755               	.LVL57:
 756               	.LM127:
 757 033e 01F4      		brne .L43
 758 0340 CC5D      		subi r28,lo8(-292)
 759 0342 DE4F      		sbci r29,hi8(-292)
 760 0344 7983      		std Y+1,r23
 761 0346 6883      		st Y,r22
 762 0348 C452      		subi r28,lo8(292)
 763 034a D140      		sbci r29,hi8(292)
 764               	.LM128:
 765 034c 65E0      		ldi r22,lo8(5)
 766 034e F62E      		mov r15,r22
 767 0350 F801      		movw r30,r16
 768               	/* #APP */
 769               	 ;  756 "stk500boot.c" 1
 770 0352 F092 5700 		sts 87, r15
 771 0356 E895      		spm
 772               		
 773               	 ;  0 "" 2
 774               	/* #NOAPP */
 775               	.L44:
 776               	.LM129:
 777 0358 07B6      		in __tmp_reg__,87-32
 778 035a 00FC      		sbrc __tmp_reg__,0
 779 035c 00C0      		rjmp .L44
 780               	.LM130:
 781 035e 81E1      		ldi r24,lo8(17)
 782               	/* #APP */
 783               	 ;  758 "stk500boot.c" 1
 784 0360 8093 5700 		sts 87, r24
 785 0364 E895      		spm
 786               		
 787               	 ;  0 "" 2
 788               	/* #NOAPP */
 789 0366 00C0      		rjmp .L45
 790               	.LVL58:
 791               	.L40:
 792               	.LM131:
 793 0368 AC01      		movw r20,r24
 794 036a 9801      		movw r18,r16
 795               	.LM132:
 796 036c FE01      		movw r30,r28
 797 036e 3B96      		adiw r30,11
 798               	.LVL59:
 799               	.L47:
 800               	.LM133:
 801 0370 21BD      		out 65-32,r18
 802               	.LM134:
 803 0372 32BD      		out 66-32,r19
 804               	.LM135:
 805 0374 2F5F      		subi r18,lo8(-(1))
 806 0376 3F4F      		sbci r19,hi8(-(1))
 807               	.LVL60:
 808               	.LM136:
 809 0378 6191      		ld r22,Z+
 810               	.LVL61:
 811 037a 60BD      		out 64-32,r22
 812               	.LVL62:
 813               	.LM137:
 814 037c FA9A      		sbi 63-32,2
 815               	.LM138:
 816 037e F99A      		sbi 63-32,1
 817               	.L46:
 818               	.LM139:
 819 0380 F999      		sbic 63-32,1
 820 0382 00C0      		rjmp .L46
 821               	.LM140:
 822 0384 4150      		subi r20,lo8(-(-1))
 823 0386 5040      		sbci r21,hi8(-(-1))
 824               	.LVL63:
 825               	.LM141:
 826 0388 01F4      		brne .L47
 827 038a 9801      		movw r18,r16
 828               	.LVL64:
 829 038c 280F      		add r18,r24
 830 038e 391F      		adc r19,r25
 831               	.LVL65:
 832               	.L45:
 833               	.LM142:
 834 0390 1A82      		std Y+2,__zero_reg__
 835               	.LBE34:
 836               	.LM143:
 837 0392 8901      		movw r16,r18
 838               	.LVL66:
 839 0394 00C0      		rjmp .L81
 840               	.LVL67:
 841               	.L27:
 842               	.LBB35:
 843               	.LM144:
 844 0396 9A81      		ldd r25,Y+2
 845 0398 CD5D      		subi r28,lo8(-291)
 846 039a DE4F      		sbci r29,hi8(-291)
 847 039c 9883      		st Y,r25
 848 039e C352      		subi r28,lo8(291)
 849 03a0 D140      		sbci r29,hi8(291)
 850 03a2 CE5D      		subi r28,lo8(-290)
 851 03a4 DE4F      		sbci r29,hi8(-290)
 852 03a6 1882      		st Y,__zero_reg__
 853 03a8 C252      		subi r28,lo8(290)
 854 03aa D140      		sbci r29,hi8(290)
 855 03ac 2B81      		ldd r18,Y+3
 856 03ae 30E0      		ldi r19,lo8(0)
 857 03b0 CE5D      		subi r28,lo8(-290)
 858 03b2 DE4F      		sbci r29,hi8(-290)
 859 03b4 A881      		ld r26,Y
 860 03b6 B981      		ldd r27,Y+1
 861 03b8 C252      		subi r28,lo8(290)
 862 03ba D140      		sbci r29,hi8(290)
 863 03bc 2A2B      		or r18,r26
 864 03be 3B2B      		or r19,r27
 865               	.LVL68:
 866               	.LM145:
 867 03c0 53E0      		ldi r21,lo8(3)
 868 03c2 E52E      		mov r14,r21
 869 03c4 F12C      		mov r15,__zero_reg__
 870 03c6 E20E      		add r14,r18
 871 03c8 F31E      		adc r15,r19
 872               	.LVL69:
 873               	.LM146:
 874 03ca 1A82      		std Y+2,__zero_reg__
 875               	.LVL70:
 876               	.LM147:
 877 03cc 4431      		cpi r20,lo8(20)
 878 03ce 01F4      		brne .L48
 879               	.LM148:
 880 03d0 DE01      		movw r26,r28
 881 03d2 1396      		adiw r26,3
 882               	.L49:
 883               	.LVL71:
 884               	.LBB36:
 885               	.LBB37:
 886               	.LM149:
 887 03d4 F801      		movw r30,r16
 888               	/* #APP */
 889               	 ;  798 "stk500boot.c" 1
 890 03d6 8591      		lpm r24, Z+
 891 03d8 9491      		lpm r25, Z
 892               		
 893               	 ;  0 "" 2
 894               	.LVL72:
 895               	/* #NOAPP */
 896               	.LBE37:
 897               	.LM150:
 898 03da 8C93      		st X,r24
 899               	.LVL73:
 900               	.LM151:
 901 03dc 1196      		adiw r26,1
 902 03de 9C93      		st X,r25
 903 03e0 1197      		sbiw r26,1
 904               	.LM152:
 905 03e2 1296      		adiw r26,2
 906               	.LVL74:
 907               	.LM153:
 908 03e4 0E5F      		subi r16,lo8(-(2))
 909 03e6 1F4F      		sbci r17,hi8(-(2))
 910               	.LVL75:
 911               	.LM154:
 912 03e8 2250      		subi r18,lo8(-(-2))
 913 03ea 3040      		sbci r19,hi8(-(-2))
 914               	.LVL76:
 915               	.LM155:
 916 03ec 01F4      		brne .L49
 917 03ee 00C0      		rjmp .L50
 918               	.LVL77:
 919               	.L48:
 920               	.LM156:
 921 03f0 CE01      		movw r24,r28
 922 03f2 0396      		adiw r24,3
 923 03f4 E82F      		mov r30,r24
 924 03f6 692F      		mov r22,r25
 925               	.LBE36:
 926               	.LM157:
 927 03f8 C901      		movw r24,r18
 928 03fa A801      		movw r20,r16
 929               	.LVL78:
 930               	.L51:
 931               	.LM158:
 932 03fc 41BD      		out 65-32,r20
 933               	.LM159:
 934 03fe 52BD      		out 66-32,r21
 935               	.LM160:
 936 0400 4F5F      		subi r20,lo8(-(1))
 937 0402 5F4F      		sbci r21,hi8(-(1))
 938               	.LVL79:
 939               	.LM161:
 940 0404 F89A      		sbi 63-32,0
 941               	.LM162:
 942 0406 70B5      		in r23,64-32
 943 0408 AE2F      		mov r26,r30
 944 040a B62F      		mov r27,r22
 945 040c 7D93      		st X+,r23
 946 040e BD01      		movw r22,r26
 947 0410 EA2F      		mov r30,r26
 948 0412 672F      		mov r22,r23
 949               	.LVL80:
 950               	.LM163:
 951 0414 0197      		sbiw r24,1
 952               	.LVL81:
 953               	.LM164:
 954 0416 01F4      		brne .L51
 955               	.LM165:
 956 0418 020F      		add r16,r18
 957 041a 131F      		adc r17,r19
 958               	.LVL82:
 959               	.L50:
 960               	.LM166:
 961 041c 1C92      		st X,__zero_reg__
 962               	.LVL83:
 963               	.LBE35:
 964               	.LM167:
 965 041e 00C0      		rjmp .L34
 966               	.LVL84:
 967               	.L20:
 968               	.LM168:
 969 0420 B0EC      		ldi r27,lo8(-64)
 970 0422 BA83      		std Y+2,r27
 971               	.L81:
 972               	.LM169:
 973 0424 32E0      		ldi r19,lo8(2)
 974 0426 E32E      		mov r14,r19
 975 0428 F12C      		mov r15,__zero_reg__
 976               	.LVL85:
 977               	.L34:
 978               	.LM170:
 979 042a 8BE1      		ldi r24,lo8(27)
 980 042c 0E94 0000 		call sendchar
 981               	.LVL86:
 982               	.LM171:
 983 0430 8B2D      		mov r24,r11
 984 0432 0E94 0000 		call sendchar
 985               	.LVL87:
 986               	.LM172:
 987 0436 8F2D      		mov r24,r15
 988 0438 0E94 0000 		call sendchar
 989               	.LVL88:
 990               	.LM173:
 991 043c 8E2D      		mov r24,r14
 992 043e 0E94 0000 		call sendchar
 993               	.LVL89:
 994               	.LM174:
 995 0442 8EE0      		ldi r24,lo8(14)
 996 0444 0E94 0000 		call sendchar
 997               	.LM175:
 998 0448 25E1      		ldi r18,lo8(21)
 999 044a 522E      		mov r5,r18
 1000 044c 5B24      		eor r5,r11
 1001               	.LM176:
 1002 044e 5E24      		eor r5,r14
 1003               	.LM177:
 1004 0450 5F24      		eor r5,r15
 1005               	.LVL90:
 1006               	.LM178:
 1007 0452 6101      		movw r12,r2
 1008               	.LM179:
 1009 0454 00C0      		rjmp .L52
 1010               	.LVL91:
 1011               	.L53:
 1012               	.LM180:
 1013 0456 F601      		movw r30,r12
 1014 0458 4190      		ld r4,Z+
 1015 045a 6F01      		movw r12,r30
 1016               	.LVL92:
 1017               	.LM181:
 1018 045c 842D      		mov r24,r4
 1019 045e 0E94 0000 		call sendchar
 1020               	.LVL93:
 1021               	.LM182:
 1022 0462 5424      		eor r5,r4
 1023               	.LVL94:
 1024               	.LM183:
 1025 0464 0894      		sec
 1026 0466 E108      		sbc r14,__zero_reg__
 1027 0468 F108      		sbc r15,__zero_reg__
 1028               	.LVL95:
 1029               	.L52:
 1030               	.LM184:
 1031 046a E114      		cp r14,__zero_reg__
 1032 046c F104      		cpc r15,__zero_reg__
 1033 046e 01F4      		brne .L53
 1034               	.LM185:
 1035 0470 852D      		mov r24,r5
 1036 0472 0E94 0000 		call sendchar
 1037               	.LM186:
 1038 0476 B394      		inc r11
 1039               	.LVL96:
 1040 0478 00C0      		rjmp .L78
 1041               	.LVL97:
 1042               	.L54:
 1043               	.LM187:
 1044 047a 92E0      		ldi r25,lo8(2)
 1045 047c B92E      		mov r11,r25
 1046 047e 8824      		clr r8
 1047 0480 9924      		clr r9
 1048 0482 6624      		clr r6
 1049 0484 7724      		clr r7
 1050 0486 00E0      		ldi r16,lo8(0)
 1051 0488 10E0      		ldi r17,hi8(0)
 1052               	.LVL98:
 1053               	.LM188:
 1054 048a 1E01      		movw r2,r28
 1055 048c 0894      		sec
 1056 048e 211C      		adc r2,__zero_reg__
 1057 0490 311C      		adc r3,__zero_reg__
 1058               	.LBB38:
 1059               	.LM189:
 1060 0492 89E0      		ldi r24,lo8(9)
 1061 0494 A82E      		mov r10,r24
 1062               	.LVL99:
 1063               	.L78:
 1064               	.LBE38:
 1065               	.LM190:
 1066 0496 20E0      		ldi r18,lo8(0)
 1067 0498 30E0      		ldi r19,hi8(0)
 1068               	.LVL100:
 1069               	.L79:
 1070 049a 80E0      		ldi r24,lo8(0)
 1071 049c 00C0      		rjmp .L73
 1072               	.LFE9:
 1074               		.data
 1077               	CSWTCH.5:
 1078 0000 00        		.byte	0
 1079 0001 00        		.byte	0
 1080 0002 00        		.byte	0
 1081 0003 00        		.byte	0
 1082 0004 00        		.byte	0
 1083 0005 00        		.byte	0
 1084 0006 00        		.byte	0
 1085 0007 00        		.byte	0
 1086 0008 00        		.byte	0
 1087 0009 00        		.byte	0
 1088 000a 00        		.byte	0
 1089 000b 00        		.byte	0
 1090 000c 00        		.byte	0
 1091 000d 00        		.byte	0
 1092 000e 00        		.byte	0
 1093 000f 00        		.byte	0
 1094 0010 02        		.byte	2
 1095 0011 02        		.byte	2
 1096 0012 0A        		.byte	10
 1137               	.Letext0:
DEFINED SYMBOLS
                            *ABS*:0000000000000000 stk500boot.c
     /tmp/ccXJbAK9.s:2      *ABS*:000000000000003f __SREG__
     /tmp/ccXJbAK9.s:3      *ABS*:000000000000003e __SP_H__
     /tmp/ccXJbAK9.s:4      *ABS*:000000000000003d __SP_L__
     /tmp/ccXJbAK9.s:5      *ABS*:0000000000000034 __CCP__
     /tmp/ccXJbAK9.s:6      *ABS*:0000000000000000 __tmp_reg__
     /tmp/ccXJbAK9.s:7      *ABS*:0000000000000001 __zero_reg__
     /tmp/ccXJbAK9.s:17     .text:0000000000000000 sendchar
     /tmp/ccXJbAK9.s:45     .init9:0000000000000000 __jumpMain
     /tmp/ccXJbAK9.s:55     *ABS*:00000000000008ff __stack
     /tmp/ccXJbAK9.s:93     .text:0000000000000018 main
     /tmp/ccXJbAK9.s:1077   .data:0000000000000000 CSWTCH.5

UNDEFINED SYMBOLS
__do_copy_data
