
stk500boot.elf:     file format elf32-avr

Sections:
Idx Name          Size      VMA       LMA       File off  Algn
  0 .data         00000004  00800100  00007de0  00000654  2**0
                  CONTENTS, ALLOC, LOAD, DATA
  1 .text         000005e0  00007800  00007800  00000074  2**1
                  CONTENTS, ALLOC, LOAD, READONLY, CODE
  2 .comment      00000011  00000000  00000000  00000658  2**0
                  CONTENTS, READONLY
  3 .debug_aranges 00000030  00000000  00000000  00000669  2**0
                  CONTENTS, READONLY, DEBUGGING
  4 .debug_info   000005ff  00000000  00000000  00000699  2**0
                  CONTENTS, READONLY, DEBUGGING
  5 .debug_abbrev 000001f6  00000000  00000000  00000c98  2**0
                  CONTENTS, READONLY, DEBUGGING
  6 .debug_line   000002de  00000000  00000000  00000e8e  2**0
                  CONTENTS, READONLY, DEBUGGING
  7 .debug_frame  0000004c  00000000  00000000  0000116c  2**2
                  CONTENTS, READONLY, DEBUGGING
  8 .debug_str    00000204  00000000  00000000  000011b8  2**0
                  CONTENTS, READONLY, DEBUGGING
  9 .debug_loc    0000097e  00000000  00000000  000013bc  2**0
                  CONTENTS, READONLY, DEBUGGING
 10 .debug_ranges 000000f0  00000000  00000000  00001d3a  2**0
                  CONTENTS, READONLY, DEBUGGING

Disassembly of section .text:

00007800 <__jumpMain>:
 * to reduce the code size, we need to provide our own initialization
 */
void __jumpMain     (void) __attribute__ ((naked)) __attribute__ ((section (".init9")));

void __jumpMain(void)
{    
    7800:	8f ef       	ldi	r24, 0xFF	; 255
	asm volatile ( ".set __stack, %0" :: "i" (RAMEND) );

	/* init stack here, bug WinAVR 20071221 does not init stack based on __stack */  
	asm volatile ("ldi r24,%0":: "M" (RAMEND & 0xFF));          
	asm volatile ("ldi r25,%0":: "M" (RAMEND >> 8));
    7802:	98 e0       	ldi	r25, 0x08	; 8
	asm volatile ("out __SP_H__,r25" ::);
    7804:	9e bf       	out	0x3e, r25	; 62
	asm volatile ("out __SP_L__,r24" ::);
    7806:	8d bf       	out	0x3d, r24	; 61

	asm volatile ( "clr __zero_reg__" );                       // GCC depends on register r1 set to 0
    7808:	11 24       	eor	r1, r1
	asm volatile ( "out %0, __zero_reg__" :: "I" (_SFR_IO_ADDR(SREG)) );  // set SREG to 0
    780a:	1f be       	out	0x3f, r1	; 63
	asm volatile ( "rjmp main");                               // jump to main()
    780c:	0c c0       	rjmp	.+24     	; 0x7826 <main>

0000780e <sendchar>:
/*
 * send single byte to USART, wait until transmission is completed
 */
static void sendchar(char c)
{
	UART_DATA_REG = c;                                         // prepare transmission
    780e:	80 93 c6 00 	sts	0x00C6, r24
	while (!(UART_STATUS_REG & (1 << UART_TRANSMIT_COMPLETE)));// wait until byte sent
    7812:	80 91 c0 00 	lds	r24, 0x00C0
    7816:	86 ff       	sbrs	r24, 6
    7818:	fc cf       	rjmp	.-8      	; 0x7812 <sendchar+0x4>
	UART_STATUS_REG |= (1 << UART_TRANSMIT_COMPLETE);          // delete TXCflag
    781a:	80 91 c0 00 	lds	r24, 0x00C0
    781e:	80 64       	ori	r24, 0x40	; 64
    7820:	80 93 c0 00 	sts	0x00C0, r24
    7824:	08 95       	ret

00007826 <main>:
}


int main(void) __attribute__ ((OS_main));
int main(void)
{
    7826:	cd b7       	in	r28, 0x3d	; 61
    7828:	de b7       	in	r29, 0x3e	; 62
    782a:	c5 52       	subi	r28, 0x25	; 37
    782c:	d1 40       	sbci	r29, 0x01	; 1
    782e:	de bf       	out	0x3e, r29	; 62
    7830:	cd bf       	out	0x3d, r28	; 61
	wdt_enable(WDTO_500MS);
    7832:	2d e0       	ldi	r18, 0x0D	; 13
    7834:	88 e1       	ldi	r24, 0x18	; 24
    7836:	90 e0       	ldi	r25, 0x00	; 0
    7838:	0f b6       	in	r0, 0x3f	; 63
    783a:	f8 94       	cli
    783c:	a8 95       	wdr
    783e:	80 93 60 00 	sts	0x0060, r24
    7842:	0f be       	out	0x3f, r0	; 63
    7844:	20 93 60 00 	sts	0x0060, r18
	/*
	 * Init UART
	 * set baudrate and enable USART receiver and transmiter without interrupts
	 */
#if UART_BAUDRATE_DOUBLE_SPEED
	UART_STATUS_REG		|=	(1 <<UART_DOUBLE_SPEED);
    7848:	80 91 c0 00 	lds	r24, 0x00C0
    784c:	82 60       	ori	r24, 0x02	; 2
    784e:	80 93 c0 00 	sts	0x00C0, r24
#endif
	UART_BAUD_RATE_LOW	=	UART_BAUD_SELECT(BAUDRATE,F_CPU);
    7852:	80 e1       	ldi	r24, 0x10	; 16
    7854:	80 93 c4 00 	sts	0x00C4, r24
	UART_CONTROL_REG	=	(1 << UART_ENABLE_RECEIVER) | (1 << UART_ENABLE_TRANSMITTER);
    7858:	88 e1       	ldi	r24, 0x18	; 24
    785a:	80 93 c1 00 	sts	0x00C1, r24


	msgLength		=	11;
	msgBuffer[0] 	=	CMD_SIGN_ON;
    785e:	81 e0       	ldi	r24, 0x01	; 1
    7860:	89 83       	std	Y+1, r24	; 0x01
	msgBuffer[1] 	=	STATUS_CMD_OK;
    7862:	1a 82       	std	Y+2, r1	; 0x02
	msgBuffer[2] 	=	8;
    7864:	88 e0       	ldi	r24, 0x08	; 8
    7866:	8b 83       	std	Y+3, r24	; 0x03
	msgBuffer[3] 	=	'A';
    7868:	81 e4       	ldi	r24, 0x41	; 65
    786a:	8c 83       	std	Y+4, r24	; 0x04
	msgBuffer[4] 	=	'V';
    786c:	86 e5       	ldi	r24, 0x56	; 86
    786e:	8d 83       	std	Y+5, r24	; 0x05
	msgBuffer[5] 	=	'R';
    7870:	82 e5       	ldi	r24, 0x52	; 82
    7872:	8e 83       	std	Y+6, r24	; 0x06
	msgBuffer[6] 	=	'I';
    7874:	89 e4       	ldi	r24, 0x49	; 73
    7876:	8f 83       	std	Y+7, r24	; 0x07
	msgBuffer[7] 	=	'S';
    7878:	83 e5       	ldi	r24, 0x53	; 83
    787a:	88 87       	std	Y+8, r24	; 0x08
	msgBuffer[8] 	=	'P';
    787c:	80 e5       	ldi	r24, 0x50	; 80
    787e:	89 87       	std	Y+9, r24	; 0x09
	msgBuffer[9] 	=	'_';
    7880:	8f e5       	ldi	r24, 0x5F	; 95
    7882:	8a 87       	std	Y+10, r24	; 0x0a
	msgBuffer[10]	=	'2';
    7884:	82 e3       	ldi	r24, 0x32	; 50
    7886:	8b 87       	std	Y+11, r24	; 0x0b
	sendchar(MESSAGE_START);
    7888:	8b e1       	ldi	r24, 0x1B	; 27
    788a:	0e 94 07 3c 	call	0x780e	; 0x780e <sendchar>
	checksum	=	MESSAGE_START^0;

	sendchar(seqNum);
    788e:	81 e0       	ldi	r24, 0x01	; 1
    7890:	0e 94 07 3c 	call	0x780e	; 0x780e <sendchar>
	checksum	^=	seqNum;

	c			=	((msgLength>>8)&0xFF);
	sendchar(c);
    7894:	80 e0       	ldi	r24, 0x00	; 0
    7896:	0e 94 07 3c 	call	0x780e	; 0x780e <sendchar>
	checksum	^=	c;

	c			=	msgLength&0x00FF;
	sendchar(c);
    789a:	8b e0       	ldi	r24, 0x0B	; 11
    789c:	0e 94 07 3c 	call	0x780e	; 0x780e <sendchar>
	checksum ^= c;

	sendchar(TOKEN);
    78a0:	8e e0       	ldi	r24, 0x0E	; 14
    78a2:	0e 94 07 3c 	call	0x780e	; 0x780e <sendchar>
	checksum ^= TOKEN;

	p	=	msgBuffer;
    78a6:	8e 01       	movw	r16, r28
    78a8:	0f 5f       	subi	r16, 0xFF	; 255
    78aa:	1f 4f       	sbci	r17, 0xFF	; 255
	c			=	msgLength&0x00FF;
	sendchar(c);
	checksum ^= c;

	sendchar(TOKEN);
	checksum ^= TOKEN;
    78ac:	5f e1       	ldi	r21, 0x1F	; 31
    78ae:	85 2e       	mov	r8, r21
	return UART_DATA_REG;
}


int main(void) __attribute__ ((OS_main));
int main(void)
    78b0:	7e 01       	movw	r14, r28
    78b2:	2c e0       	ldi	r18, 0x0C	; 12
    78b4:	e2 0e       	add	r14, r18
    78b6:	f1 1c       	adc	r15, r1
	checksum ^= TOKEN;

	p	=	msgBuffer;
	while ( msgLength )
	{
		c	=	*p++;
    78b8:	f8 01       	movw	r30, r16
    78ba:	d1 90       	ld	r13, Z+
    78bc:	8f 01       	movw	r16, r30
		sendchar(c);
    78be:	8d 2d       	mov	r24, r13
    78c0:	0e 94 07 3c 	call	0x780e	; 0x780e <sendchar>
		checksum ^=c;
    78c4:	8d 24       	eor	r8, r13

	sendchar(TOKEN);
	checksum ^= TOKEN;

	p	=	msgBuffer;
	while ( msgLength )
    78c6:	0e 15       	cp	r16, r14
    78c8:	1f 05       	cpc	r17, r15
    78ca:	b1 f7       	brne	.-20     	; 0x78b8 <main+0x92>
		c	=	*p++;
		sendchar(c);
		checksum ^=c;
		msgLength--;
	}
	sendchar(checksum);
    78cc:	88 2d       	mov	r24, r8
    78ce:	0e 94 07 3c 	call	0x780e	; 0x780e <sendchar>
	unsigned char   isLeave = 0;
	unsigned long	boot_timeout;
	unsigned long	boot_timer;
	unsigned int	boot_state;

	boot_timer	 =	0;
    78d2:	40 e0       	ldi	r20, 0x00	; 0
    78d4:	50 e0       	ldi	r21, 0x00	; 0
    78d6:	ba 01       	movw	r22, r20
    78d8:	20 c0       	rjmp	.+64     	; 0x791a <main+0xf4>
	#else
		//round up by default
		__ticks_dc = (uint32_t)(ceil(fabs(__tmp)));
	#endif

	__builtin_avr_delay_cycles(__ticks_dc);
    78da:	f5 e0       	ldi	r31, 0x05	; 5
    78dc:	fa 95       	dec	r31
    78de:	f1 f7       	brne	.-4      	; 0x78dc <main+0xb6>
    78e0:	00 00       	nop
	while (boot_state==0)
	{
		while ((!(Serial_Available())) && (boot_state == 0))		// wait for data
		{
			_delay_ms(0.001);
			boot_timer++;
    78e2:	4f 5f       	subi	r20, 0xFF	; 255
    78e4:	5f 4f       	sbci	r21, 0xFF	; 255
    78e6:	6f 4f       	sbci	r22, 0xFF	; 255
    78e8:	7f 4f       	sbci	r23, 0xFF	; 255

			if (boot_timer > boot_timeout)
    78ea:	21 e0       	ldi	r18, 0x01	; 1
    78ec:	30 e0       	ldi	r19, 0x00	; 0
    78ee:	41 39       	cpi	r20, 0x91	; 145
    78f0:	80 ed       	ldi	r24, 0xD0	; 208
    78f2:	58 07       	cpc	r21, r24
    78f4:	83 e0       	ldi	r24, 0x03	; 3
    78f6:	68 07       	cpc	r22, r24
    78f8:	71 05       	cpc	r23, r1
    78fa:	10 f4       	brcc	.+4      	; 0x7900 <main+0xda>
    78fc:	20 e0       	ldi	r18, 0x00	; 0
    78fe:	30 e0       	ldi	r19, 0x00	; 0
			{
				boot_state	=	1; // (after ++ -> boot_state=2 bootloader timeout, jump to main 0x00000 )
			}

			wdt_reset();
    7900:	a8 95       	wdr


//************************************************************************
static int	Serial_Available(void)
{
	return(UART_STATUS_REG & (1 << UART_RECEIVE_COMPLETE));	// wait for data
    7902:	80 91 c0 00 	lds	r24, 0x00C0
	sendchar(checksum);
	seqNum++;

	while (boot_state==0)
	{
		while ((!(Serial_Available())) && (boot_state == 0))		// wait for data
    7906:	87 ff       	sbrs	r24, 7
    7908:	04 c0       	rjmp	.+8      	; 0x7912 <main+0xec>
				boot_state	=	1; // (after ++ -> boot_state=2 bootloader timeout, jump to main 0x00000 )
			}

			wdt_reset();
		}
		boot_state++; // ( if boot_state=1 bootloader received byte from UART, enter bootloader mode)
    790a:	2f 5f       	subi	r18, 0xFF	; 255
    790c:	3f 4f       	sbci	r19, 0xFF	; 255
		msgLength--;
	}
	sendchar(checksum);
	seqNum++;

	while (boot_state==0)
    790e:	29 f0       	breq	.+10     	; 0x791a <main+0xf4>
    7910:	07 c0       	rjmp	.+14     	; 0x7920 <main+0xfa>
	{
		while ((!(Serial_Available())) && (boot_state == 0))		// wait for data
    7912:	21 15       	cp	r18, r1
    7914:	31 05       	cpc	r19, r1
    7916:	09 f3       	breq	.-62     	; 0x78da <main+0xb4>
    7918:	f8 cf       	rjmp	.-16     	; 0x790a <main+0xe4>
	p	=	msgBuffer;
	while ( msgLength )
	{
		c	=	*p++;
		sendchar(c);
		checksum ^=c;
    791a:	20 e0       	ldi	r18, 0x00	; 0
    791c:	30 e0       	ldi	r19, 0x00	; 0
    791e:	f1 cf       	rjmp	.-30     	; 0x7902 <main+0xdc>
		}
		boot_state++; // ( if boot_state=1 bootloader received byte from UART, enter bootloader mode)
	}


	if (boot_state==1)
    7920:	21 30       	cpi	r18, 0x01	; 1
    7922:	31 05       	cpc	r19, r1
    7924:	71 f0       	breq	.+28     	; 0x7942 <main+0x11c>
		}	//while

	}	//if


	asm volatile ("nop");			// wait until port has changed
    7926:	00 00       	nop

	/*
	 * Now leave bootloader
	 */

	UART_STATUS_REG	&=	0xfd;
    7928:	80 91 c0 00 	lds	r24, 0x00C0
    792c:	8d 7f       	andi	r24, 0xFD	; 253
    792e:	80 93 c0 00 	sts	0x00C0, r24
	boot_rww_enable();				// enable application section
    7932:	81 e1       	ldi	r24, 0x11	; 17
    7934:	80 93 57 00 	sts	0x0057, r24
    7938:	e8 95       	spm


	asm volatile(
    793a:	ee 27       	eor	r30, r30
    793c:	ff 27       	eor	r31, r31
    793e:	09 94       	ijmp
    7940:	46 c2       	rjmp	.+1164   	; 0x7dce <main+0x5a8>
		}
		boot_state++; // ( if boot_state=1 bootloader received byte from UART, enter bootloader mode)
	}


	if (boot_state==1)
    7942:	42 e0       	ldi	r20, 0x02	; 2
    7944:	94 2e       	mov	r9, r20
    7946:	e1 2c       	mov	r14, r1
    7948:	f1 2c       	mov	r15, r1
    794a:	c1 2c       	mov	r12, r1
    794c:	d1 2c       	mov	r13, r1
    794e:	00 e0       	ldi	r16, 0x00	; 0
    7950:	10 e0       	ldi	r17, 0x00	; 0
		{
			unsigned int	data;
#if (FLASHEND > 0x0FFFF)
			data	=	pgm_read_word_far(0);	//*	get the first word of the user program
#else
			data	=	pgm_read_word_near(0);	//*	get the first word of the user program
    7952:	f7 01       	movw	r30, r14
    7954:	85 91       	lpm	r24, Z+
    7956:	94 91       	lpm	r25, Z+
    7958:	ce 5d       	subi	r28, 0xDE	; 222
    795a:	de 4f       	sbci	r29, 0xFE	; 254
    795c:	99 83       	std	Y+1, r25	; 0x01
    795e:	88 83       	st	Y, r24
    7960:	c2 52       	subi	r28, 0x22	; 34
    7962:	d1 40       	sbci	r29, 0x01	; 1
	if (boot_state==1)
	{
		//*	main loop
		while (!isLeave)
		{
			wdt_reset();
    7964:	a8 95       	wdr
    7966:	a0 e0       	ldi	r26, 0x00	; 0
    7968:	b0 e0       	ldi	r27, 0x00	; 0
			/*
			 * Collect received bytes to a complete message
			 */
			msgParseState	=	ST_START;
    796a:	80 e0       	ldi	r24, 0x00	; 0
    796c:	02 c0       	rjmp	.+4      	; 0x7972 <main+0x14c>
    796e:	20 e0       	ldi	r18, 0x00	; 0
    7970:	30 e0       	ldi	r19, 0x00	; 0
			while ( msgParseState != ST_PROCESS )
			{
				wdt_reset();
    7972:	a8 95       	wdr
				if (boot_state==1)
    7974:	21 30       	cpi	r18, 0x01	; 1
    7976:	31 05       	cpc	r19, r1
    7978:	c1 f4       	brne	.+48     	; 0x79aa <main+0x184>
    797a:	1e c0       	rjmp	.+60     	; 0x79b8 <main+0x192>
	uint32_t count = 0;

	while (!(UART_STATUS_REG & (1 << UART_RECEIVE_COMPLETE)))
	{
		// wait for data
		count++;
    797c:	4f 5f       	subi	r20, 0xFF	; 255
    797e:	5f 4f       	sbci	r21, 0xFF	; 255
    7980:	6f 4f       	sbci	r22, 0xFF	; 255
    7982:	7f 4f       	sbci	r23, 0xFF	; 255
		if (count > MAX_TIME_COUNT)
    7984:	41 30       	cpi	r20, 0x01	; 1
    7986:	92 e1       	ldi	r25, 0x12	; 18
    7988:	59 07       	cpc	r21, r25
    798a:	9a e7       	ldi	r25, 0x7A	; 122
    798c:	69 07       	cpc	r22, r25
    798e:	71 05       	cpc	r23, r1
    7990:	78 f0       	brcs	.+30     	; 0x79b0 <main+0x18a>
#if (FLASHEND > 0x0FFFF)
			data	=	pgm_read_word_far(0);	//*	get the first word of the user program
#else
			data	=	pgm_read_word_near(0);	//*	get the first word of the user program
#endif
			if (data != 0xffff)					//*	make sure its valid before jumping to it.
    7992:	ce 5d       	subi	r28, 0xDE	; 222
    7994:	de 4f       	sbci	r29, 0xFE	; 254
    7996:	28 81       	ld	r18, Y
    7998:	39 81       	ldd	r19, Y+1	; 0x01
    799a:	c2 52       	subi	r28, 0x22	; 34
    799c:	d1 40       	sbci	r29, 0x01	; 1
    799e:	2f 3f       	cpi	r18, 0xFF	; 255
    79a0:	3f 4f       	sbci	r19, 0xFF	; 255
    79a2:	19 f0       	breq	.+6      	; 0x79aa <main+0x184>
			{
				asm volatile(
    79a4:	ee 27       	eor	r30, r30
    79a6:	ff 27       	eor	r31, r31
    79a8:	09 94       	ijmp
			 */
			msgParseState	=	ST_START;
			while ( msgParseState != ST_PROCESS )
			{
				wdt_reset();
				if (boot_state==1)
    79aa:	40 e0       	ldi	r20, 0x00	; 0
    79ac:	50 e0       	ldi	r21, 0x00	; 0
    79ae:	ba 01       	movw	r22, r20
#define	 MAX_TIME_COUNT	(F_CPU >> 1)
static unsigned char recchar_timeout(void)
{
	uint32_t count = 0;

	while (!(UART_STATUS_REG & (1 << UART_RECEIVE_COMPLETE)))
    79b0:	20 91 c0 00 	lds	r18, 0x00C0
    79b4:	27 ff       	sbrs	r18, 7
    79b6:	e2 cf       	rjmp	.-60     	; 0x797c <main+0x156>
				);
			}
			count	=	0;
		}
	}
	return UART_DATA_REG;
    79b8:	20 91 c6 00 	lds	r18, 0x00C6
				//										sendchar('c');
				//										sendchar(':');
				//										sendchar(c);


				switch (msgParseState){
    79bc:	83 30       	cpi	r24, 0x03	; 3
    79be:	e1 f0       	breq	.+56     	; 0x79f8 <main+0x1d2>
    79c0:	20 f4       	brcc	.+8      	; 0x79ca <main+0x1a4>
    79c2:	81 30       	cpi	r24, 0x01	; 1
    79c4:	61 f0       	breq	.+24     	; 0x79de <main+0x1b8>
    79c6:	98 f4       	brcc	.+38     	; 0x79ee <main+0x1c8>
    79c8:	07 c0       	rjmp	.+14     	; 0x79d8 <main+0x1b2>
    79ca:	85 30       	cpi	r24, 0x05	; 5
    79cc:	09 f1       	breq	.+66     	; 0x7a10 <main+0x1ea>
    79ce:	c0 f0       	brcs	.+48     	; 0x7a00 <main+0x1da>
    79d0:	86 30       	cpi	r24, 0x06	; 6
    79d2:	09 f0       	breq	.+2      	; 0x79d6 <main+0x1b0>
    79d4:	60 c0       	rjmp	.+192    	; 0x7a96 <main+0x270>
    79d6:	2c c0       	rjmp	.+88     	; 0x7a30 <main+0x20a>
				case ST_START:
					if ( c == MESSAGE_START )
    79d8:	2b 31       	cpi	r18, 0x1B	; 27
    79da:	49 f6       	brne	.-110    	; 0x796e <main+0x148>
    79dc:	f9 c1       	rjmp	.+1010   	; 0x7dd0 <main+0x5aa>
						checksum		=	MESSAGE_START^0;
					}
					break;

				case ST_GET_SEQ_NUM:
					if ( (c == 1) || (c == seqNum) )
    79de:	21 30       	cpi	r18, 0x01	; 1
    79e0:	11 f0       	breq	.+4      	; 0x79e6 <main+0x1c0>
    79e2:	29 11       	cpse	r18, r9
    79e4:	fb c1       	rjmp	.+1014   	; 0x7ddc <main+0x5b6>
					{
						seqNum			=	c;
						msgParseState	=	ST_MSG_SIZE_1;
						checksum		^=	c;
    79e6:	82 26       	eor	r8, r18
    79e8:	92 2e       	mov	r9, r18

				case ST_GET_SEQ_NUM:
					if ( (c == 1) || (c == seqNum) )
					{
						seqNum			=	c;
						msgParseState	=	ST_MSG_SIZE_1;
    79ea:	82 e0       	ldi	r24, 0x02	; 2
						checksum		^=	c;
    79ec:	c0 cf       	rjmp	.-128    	; 0x796e <main+0x148>
						msgParseState	=	ST_START;
					}
					break;

				case ST_MSG_SIZE_1:
					msgLength		=	c<<8;
    79ee:	b2 2f       	mov	r27, r18
    79f0:	a0 e0       	ldi	r26, 0x00	; 0
					msgParseState	=	ST_MSG_SIZE_2;
					checksum		^=	c;
    79f2:	82 26       	eor	r8, r18
					}
					break;

				case ST_MSG_SIZE_1:
					msgLength		=	c<<8;
					msgParseState	=	ST_MSG_SIZE_2;
    79f4:	83 e0       	ldi	r24, 0x03	; 3
					checksum		^=	c;
					break;
    79f6:	bb cf       	rjmp	.-138    	; 0x796e <main+0x148>

				case ST_MSG_SIZE_2:
					msgLength		|=	c;
    79f8:	a2 2b       	or	r26, r18
					msgParseState	=	ST_GET_TOKEN;
					checksum		^=	c;
    79fa:	82 26       	eor	r8, r18
					checksum		^=	c;
					break;

				case ST_MSG_SIZE_2:
					msgLength		|=	c;
					msgParseState	=	ST_GET_TOKEN;
    79fc:	84 e0       	ldi	r24, 0x04	; 4
					checksum		^=	c;
					break;
    79fe:	b7 cf       	rjmp	.-146    	; 0x796e <main+0x148>

				case ST_GET_TOKEN:
					if ( c == TOKEN )
    7a00:	2e 30       	cpi	r18, 0x0E	; 14
    7a02:	09 f0       	breq	.+2      	; 0x7a06 <main+0x1e0>
    7a04:	eb c1       	rjmp	.+982    	; 0x7ddc <main+0x5b6>
					{
						msgParseState	=	ST_GET_DATA;
						checksum		^=	c;
    7a06:	82 26       	eor	r8, r18
						ii				=	0;
    7a08:	e1 2c       	mov	r14, r1
    7a0a:	f1 2c       	mov	r15, r1
					break;

				case ST_GET_TOKEN:
					if ( c == TOKEN )
					{
						msgParseState	=	ST_GET_DATA;
    7a0c:	85 e0       	ldi	r24, 0x05	; 5
    7a0e:	af cf       	rjmp	.-162    	; 0x796e <main+0x148>
						msgParseState	=	ST_START;
					}
					break;

				case ST_GET_DATA:
					msgBuffer[ii++]	=	c;
    7a10:	e1 e0       	ldi	r30, 0x01	; 1
    7a12:	f0 e0       	ldi	r31, 0x00	; 0
    7a14:	ec 0f       	add	r30, r28
    7a16:	fd 1f       	adc	r31, r29
    7a18:	ee 0d       	add	r30, r14
    7a1a:	ff 1d       	adc	r31, r15
    7a1c:	20 83       	st	Z, r18
    7a1e:	ef ef       	ldi	r30, 0xFF	; 255
    7a20:	ee 1a       	sub	r14, r30
    7a22:	fe 0a       	sbc	r15, r30
					checksum		^=	c;
    7a24:	82 26       	eor	r8, r18
					if (ii == msgLength )
    7a26:	ea 16       	cp	r14, r26
    7a28:	fb 06       	cpc	r15, r27
    7a2a:	09 f0       	breq	.+2      	; 0x7a2e <main+0x208>
    7a2c:	a0 cf       	rjmp	.-192    	; 0x796e <main+0x148>
    7a2e:	d4 c1       	rjmp	.+936    	; 0x7dd8 <main+0x5b2>
						msgParseState	=	ST_GET_CHECK;
					}
					break;

				case ST_GET_CHECK:
					if ( c == checksum )
    7a30:	28 11       	cpse	r18, r8
    7a32:	d4 c1       	rjmp	.+936    	; 0x7ddc <main+0x5b6>

			/*
			 * Now process the STK500 commands, see Atmel Appnote AVR068
			 */

			switch (msgBuffer[0])
    7a34:	89 81       	ldd	r24, Y+1	; 0x01
    7a36:	83 31       	cpi	r24, 0x13	; 19
    7a38:	09 f4       	brne	.+2      	; 0x7a3c <main+0x216>
    7a3a:	c2 c0       	rjmp	.+388    	; 0x7bc0 <main+0x39a>
    7a3c:	b0 f4       	brcc	.+44     	; 0x7a6a <main+0x244>
    7a3e:	86 30       	cpi	r24, 0x06	; 6
    7a40:	09 f4       	brne	.+2      	; 0x7a44 <main+0x21e>
    7a42:	a8 c0       	rjmp	.+336    	; 0x7b94 <main+0x36e>
    7a44:	48 f4       	brcc	.+18     	; 0x7a58 <main+0x232>
    7a46:	82 30       	cpi	r24, 0x02	; 2
    7a48:	49 f1       	breq	.+82     	; 0x7a9c <main+0x276>
    7a4a:	83 30       	cpi	r24, 0x03	; 3
    7a4c:	09 f4       	brne	.+2      	; 0x7a50 <main+0x22a>
    7a4e:	59 c0       	rjmp	.+178    	; 0x7b02 <main+0x2dc>
    7a50:	81 30       	cpi	r24, 0x01	; 1
    7a52:	09 f0       	breq	.+2      	; 0x7a56 <main+0x230>
    7a54:	52 c1       	rjmp	.+676    	; 0x7cfa <main+0x4d4>
    7a56:	3e c0       	rjmp	.+124    	; 0x7ad4 <main+0x2ae>
    7a58:	81 31       	cpi	r24, 0x11	; 17
    7a5a:	09 f4       	brne	.+2      	; 0x7a5e <main+0x238>
    7a5c:	62 c0       	rjmp	.+196    	; 0x7b22 <main+0x2fc>
    7a5e:	08 f0       	brcs	.+2      	; 0x7a62 <main+0x23c>
    7a60:	92 c0       	rjmp	.+292    	; 0x7b86 <main+0x360>
    7a62:	80 31       	cpi	r24, 0x10	; 16
    7a64:	09 f0       	breq	.+2      	; 0x7a68 <main+0x242>
    7a66:	49 c1       	rjmp	.+658    	; 0x7cfa <main+0x4d4>
    7a68:	19 c0       	rjmp	.+50     	; 0x7a9c <main+0x276>
    7a6a:	88 31       	cpi	r24, 0x18	; 24
    7a6c:	09 f4       	brne	.+2      	; 0x7a70 <main+0x24a>
    7a6e:	75 c0       	rjmp	.+234    	; 0x7b5a <main+0x334>
    7a70:	48 f4       	brcc	.+18     	; 0x7a84 <main+0x25e>
    7a72:	85 31       	cpi	r24, 0x15	; 21
    7a74:	09 f4       	brne	.+2      	; 0x7a78 <main+0x252>
    7a76:	a4 c0       	rjmp	.+328    	; 0x7bc0 <main+0x39a>
    7a78:	08 f4       	brcc	.+2      	; 0x7a7c <main+0x256>
    7a7a:	05 c1       	rjmp	.+522    	; 0x7c86 <main+0x460>
    7a7c:	86 31       	cpi	r24, 0x16	; 22
    7a7e:	09 f0       	breq	.+2      	; 0x7a82 <main+0x25c>
    7a80:	3c c1       	rjmp	.+632    	; 0x7cfa <main+0x4d4>
    7a82:	01 c1       	rjmp	.+514    	; 0x7c86 <main+0x460>
    7a84:	8b 31       	cpi	r24, 0x1B	; 27
    7a86:	09 f4       	brne	.+2      	; 0x7a8a <main+0x264>
    7a88:	50 c0       	rjmp	.+160    	; 0x7b2a <main+0x304>
    7a8a:	8d 31       	cpi	r24, 0x1D	; 29
    7a8c:	49 f0       	breq	.+18     	; 0x7aa0 <main+0x27a>
    7a8e:	8a 31       	cpi	r24, 0x1A	; 26
    7a90:	09 f0       	breq	.+2      	; 0x7a94 <main+0x26e>
    7a92:	33 c1       	rjmp	.+614    	; 0x7cfa <main+0x4d4>
    7a94:	55 c0       	rjmp	.+170    	; 0x7b40 <main+0x31a>
			wdt_reset();
			/*
			 * Collect received bytes to a complete message
			 */
			msgParseState	=	ST_START;
			while ( msgParseState != ST_PROCESS )
    7a96:	87 30       	cpi	r24, 0x07	; 7
    7a98:	69 f2       	breq	.-102    	; 0x7a34 <main+0x20e>
    7a9a:	69 cf       	rjmp	.-302    	; 0x796e <main+0x148>

			/*
			 * Now process the STK500 commands, see Atmel Appnote AVR068
			 */

			switch (msgBuffer[0])
    7a9c:	71 2c       	mov	r7, r1
    7a9e:	43 c0       	rjmp	.+134    	; 0x7b26 <main+0x300>
			case CMD_SPI_MULTI:
			{
				unsigned char answerByte = 0;

				// only Read Signature Bytes implemented, return dummy value for other instructions
				if ( msgBuffer[4]== 0x30 )
    7aa0:	9d 81       	ldd	r25, Y+5	; 0x05
    7aa2:	90 33       	cpi	r25, 0x30	; 48
    7aa4:	39 f4       	brne	.+14     	; 0x7ab4 <main+0x28e>
				{
					unsigned char signatureIndex = msgBuffer[6];
    7aa6:	8f 81       	ldd	r24, Y+7	; 0x07

					if ( signatureIndex == 0 )
    7aa8:	88 23       	and	r24, r24
    7aaa:	31 f0       	breq	.+12     	; 0x7ab8 <main+0x292>
						answerByte = (SIGNATURE_BYTES >>16) & 0x000000FF;
					else if ( signatureIndex == 1 )
    7aac:	81 30       	cpi	r24, 0x01	; 1
    7aae:	31 f4       	brne	.+12     	; 0x7abc <main+0x296>
						answerByte = (SIGNATURE_BYTES >> 8) & 0x000000FF;
    7ab0:	85 e9       	ldi	r24, 0x95	; 149
    7ab2:	05 c0       	rjmp	.+10     	; 0x7abe <main+0x298>

			switch (msgBuffer[0])
			{
			case CMD_SPI_MULTI:
			{
				unsigned char answerByte = 0;
    7ab4:	80 e0       	ldi	r24, 0x00	; 0
    7ab6:	03 c0       	rjmp	.+6      	; 0x7abe <main+0x298>
				if ( msgBuffer[4]== 0x30 )
				{
					unsigned char signatureIndex = msgBuffer[6];

					if ( signatureIndex == 0 )
						answerByte = (SIGNATURE_BYTES >>16) & 0x000000FF;
    7ab8:	8e e1       	ldi	r24, 0x1E	; 30
    7aba:	01 c0       	rjmp	.+2      	; 0x7abe <main+0x298>
					else if ( signatureIndex == 1 )
						answerByte = (SIGNATURE_BYTES >> 8) & 0x000000FF;
					else
						answerByte = SIGNATURE_BYTES & 0x000000FF;
    7abc:	8f e0       	ldi	r24, 0x0F	; 15
				}
				msgLength = 7;
				msgBuffer[1] = STATUS_CMD_OK;
    7abe:	1a 82       	std	Y+2, r1	; 0x02
				msgBuffer[2] = 0;
    7ac0:	1b 82       	std	Y+3, r1	; 0x03
				msgBuffer[3] = msgBuffer[4];  // Instruction Byte 1
    7ac2:	9c 83       	std	Y+4, r25	; 0x04
				msgBuffer[4] = msgBuffer[5];  // Instruction Byte 2
    7ac4:	9e 81       	ldd	r25, Y+6	; 0x06
    7ac6:	9d 83       	std	Y+5, r25	; 0x05
				msgBuffer[5] = answerByte;
    7ac8:	8e 83       	std	Y+6, r24	; 0x06
				msgBuffer[6] = STATUS_CMD_OK;
    7aca:	1f 82       	std	Y+7, r1	; 0x07
			}
			break;
    7acc:	71 2c       	mov	r7, r1
					else if ( signatureIndex == 1 )
						answerByte = (SIGNATURE_BYTES >> 8) & 0x000000FF;
					else
						answerByte = SIGNATURE_BYTES & 0x000000FF;
				}
				msgLength = 7;
    7ace:	27 e0       	ldi	r18, 0x07	; 7
    7ad0:	30 e0       	ldi	r19, 0x00	; 0
				msgBuffer[3] = msgBuffer[4];  // Instruction Byte 1
				msgBuffer[4] = msgBuffer[5];  // Instruction Byte 2
				msgBuffer[5] = answerByte;
				msgBuffer[6] = STATUS_CMD_OK;
			}
			break;
    7ad2:	18 c1       	rjmp	.+560    	; 0x7d04 <main+0x4de>

			case CMD_SIGN_ON:
				msgLength = 11;
				msgBuffer[1]  = STATUS_CMD_OK;
    7ad4:	1a 82       	std	Y+2, r1	; 0x02
				msgBuffer[2]  = 8;
    7ad6:	88 e0       	ldi	r24, 0x08	; 8
    7ad8:	8b 83       	std	Y+3, r24	; 0x03
				msgBuffer[3]  = 'A';
    7ada:	81 e4       	ldi	r24, 0x41	; 65
    7adc:	8c 83       	std	Y+4, r24	; 0x04
				msgBuffer[4]  = 'V';
    7ade:	86 e5       	ldi	r24, 0x56	; 86
    7ae0:	8d 83       	std	Y+5, r24	; 0x05
				msgBuffer[5]  = 'R';
    7ae2:	82 e5       	ldi	r24, 0x52	; 82
    7ae4:	8e 83       	std	Y+6, r24	; 0x06
				msgBuffer[6]  = 'I';
    7ae6:	89 e4       	ldi	r24, 0x49	; 73
    7ae8:	8f 83       	std	Y+7, r24	; 0x07
				msgBuffer[7]  = 'S';
    7aea:	83 e5       	ldi	r24, 0x53	; 83
    7aec:	88 87       	std	Y+8, r24	; 0x08
				msgBuffer[8]  = 'P';
    7aee:	80 e5       	ldi	r24, 0x50	; 80
    7af0:	89 87       	std	Y+9, r24	; 0x09
				msgBuffer[9]  = '_';
    7af2:	8f e5       	ldi	r24, 0x5F	; 95
    7af4:	8a 87       	std	Y+10, r24	; 0x0a
				msgBuffer[10] = '2';
    7af6:	82 e3       	ldi	r24, 0x32	; 50
    7af8:	8b 87       	std	Y+11, r24	; 0x0b
				break;
    7afa:	71 2c       	mov	r7, r1
				msgBuffer[6] = STATUS_CMD_OK;
			}
			break;

			case CMD_SIGN_ON:
				msgLength = 11;
    7afc:	2b e0       	ldi	r18, 0x0B	; 11
    7afe:	30 e0       	ldi	r19, 0x00	; 0
				msgBuffer[6]  = 'I';
				msgBuffer[7]  = 'S';
				msgBuffer[8]  = 'P';
				msgBuffer[9]  = '_';
				msgBuffer[10] = '2';
				break;
    7b00:	01 c1       	rjmp	.+514    	; 0x7d04 <main+0x4de>
    7b02:	aa 81       	ldd	r26, Y+2	; 0x02
    7b04:	a0 59       	subi	r26, 0x90	; 144
    7b06:	a3 30       	cpi	r26, 0x03	; 3
    7b08:	28 f4       	brcc	.+10     	; 0x7b14 <main+0x2ee>
    7b0a:	b0 e0       	ldi	r27, 0x00	; 0
    7b0c:	a0 50       	subi	r26, 0x00	; 0
    7b0e:	bf 4f       	sbci	r27, 0xFF	; 255
    7b10:	8c 91       	ld	r24, X
    7b12:	01 c0       	rjmp	.+2      	; 0x7b16 <main+0x2f0>

			case CMD_GET_PARAMETER:
			{
				unsigned char value;

				switch(msgBuffer[1])
    7b14:	80 e0       	ldi	r24, 0x00	; 0
				default:
					value = 0;
					break;
				}
				msgLength = 3;
				msgBuffer[1] = STATUS_CMD_OK;
    7b16:	1a 82       	std	Y+2, r1	; 0x02
				msgBuffer[2] = value;
    7b18:	8b 83       	std	Y+3, r24	; 0x03
			}
			break;
    7b1a:	71 2c       	mov	r7, r1
					break;
				default:
					value = 0;
					break;
				}
				msgLength = 3;
    7b1c:	23 e0       	ldi	r18, 0x03	; 3
    7b1e:	30 e0       	ldi	r19, 0x00	; 0
				msgBuffer[1] = STATUS_CMD_OK;
				msgBuffer[2] = value;
			}
			break;
    7b20:	f1 c0       	rjmp	.+482    	; 0x7d04 <main+0x4de>

			case CMD_LEAVE_PROGMODE_ISP:
				isLeave = 1;
    7b22:	77 24       	eor	r7, r7
    7b24:	73 94       	inc	r7
			case CMD_ENTER_PROGMODE_ISP:
			case CMD_SET_PARAMETER:
				msgLength = 2;
				msgBuffer[1] = STATUS_CMD_OK;
    7b26:	1a 82       	std	Y+2, r1	; 0x02
    7b28:	eb c0       	rjmp	.+470    	; 0x7d00 <main+0x4da>
				break;

			case CMD_READ_SIGNATURE_ISP:
			{
				unsigned char signatureIndex = msgBuffer[4];
    7b2a:	8d 81       	ldd	r24, Y+5	; 0x05
				unsigned char signature;

				if ( signatureIndex == 0 )
    7b2c:	88 23       	and	r24, r24
    7b2e:	21 f0       	breq	.+8      	; 0x7b38 <main+0x312>
					signature = (SIGNATURE_BYTES >>16) & 0x000000FF;
				else if ( signatureIndex == 1 )
    7b30:	81 30       	cpi	r24, 0x01	; 1
    7b32:	21 f4       	brne	.+8      	; 0x7b3c <main+0x316>
					signature = (SIGNATURE_BYTES >> 8) & 0x000000FF;
    7b34:	85 e9       	ldi	r24, 0x95	; 149
    7b36:	24 c0       	rjmp	.+72     	; 0x7b80 <main+0x35a>
			{
				unsigned char signatureIndex = msgBuffer[4];
				unsigned char signature;

				if ( signatureIndex == 0 )
					signature = (SIGNATURE_BYTES >>16) & 0x000000FF;
    7b38:	8e e1       	ldi	r24, 0x1E	; 30
    7b3a:	22 c0       	rjmp	.+68     	; 0x7b80 <main+0x35a>
				else if ( signatureIndex == 1 )
					signature = (SIGNATURE_BYTES >> 8) & 0x000000FF;
				else
					signature = SIGNATURE_BYTES & 0x000000FF;
    7b3c:	8f e0       	ldi	r24, 0x0F	; 15
    7b3e:	20 c0       	rjmp	.+64     	; 0x7b80 <main+0x35a>
			}
			break;

			case CMD_READ_LOCK_ISP:
				msgLength = 4;
				msgBuffer[1] = STATUS_CMD_OK;
    7b40:	1a 82       	std	Y+2, r1	; 0x02
				msgBuffer[2] = boot_lock_fuse_bits_get( GET_LOCK_BITS );
    7b42:	e1 e0       	ldi	r30, 0x01	; 1
    7b44:	f0 e0       	ldi	r31, 0x00	; 0
    7b46:	89 e0       	ldi	r24, 0x09	; 9
    7b48:	80 93 57 00 	sts	0x0057, r24
    7b4c:	e4 91       	lpm	r30, Z+
    7b4e:	eb 83       	std	Y+3, r30	; 0x03
				msgBuffer[3] = STATUS_CMD_OK;
    7b50:	1c 82       	std	Y+4, r1	; 0x04
				break;
    7b52:	71 2c       	mov	r7, r1
				msgBuffer[3] = STATUS_CMD_OK;
			}
			break;

			case CMD_READ_LOCK_ISP:
				msgLength = 4;
    7b54:	24 e0       	ldi	r18, 0x04	; 4
    7b56:	30 e0       	ldi	r19, 0x00	; 0
				msgBuffer[1] = STATUS_CMD_OK;
				msgBuffer[2] = boot_lock_fuse_bits_get( GET_LOCK_BITS );
				msgBuffer[3] = STATUS_CMD_OK;
				break;
    7b58:	d5 c0       	rjmp	.+426    	; 0x7d04 <main+0x4de>

			case CMD_READ_FUSE_ISP:
			{
				unsigned char fuseBits;

				if ( msgBuffer[2] == 0x50 )
    7b5a:	8b 81       	ldd	r24, Y+3	; 0x03
    7b5c:	80 35       	cpi	r24, 0x50	; 80
    7b5e:	51 f4       	brne	.+20     	; 0x7b74 <main+0x34e>
				{
					if ( msgBuffer[3] == 0x08 )
    7b60:	8c 81       	ldd	r24, Y+4	; 0x04
    7b62:	88 30       	cpi	r24, 0x08	; 8
    7b64:	19 f4       	brne	.+6      	; 0x7b6c <main+0x346>
						fuseBits = boot_lock_fuse_bits_get( GET_EXTENDED_FUSE_BITS );
    7b66:	e2 e0       	ldi	r30, 0x02	; 2
    7b68:	f0 e0       	ldi	r31, 0x00	; 0
    7b6a:	06 c0       	rjmp	.+12     	; 0x7b78 <main+0x352>
					else
						fuseBits = boot_lock_fuse_bits_get( GET_LOW_FUSE_BITS );
    7b6c:	89 e0       	ldi	r24, 0x09	; 9
    7b6e:	e0 e0       	ldi	r30, 0x00	; 0
    7b70:	f0 e0       	ldi	r31, 0x00	; 0
    7b72:	03 c0       	rjmp	.+6      	; 0x7b7a <main+0x354>
				}
				else
				{
					fuseBits = boot_lock_fuse_bits_get( GET_HIGH_FUSE_BITS );
    7b74:	e3 e0       	ldi	r30, 0x03	; 3
    7b76:	f0 e0       	ldi	r31, 0x00	; 0
    7b78:	89 e0       	ldi	r24, 0x09	; 9
    7b7a:	80 93 57 00 	sts	0x0057, r24
    7b7e:	84 91       	lpm	r24, Z+
				}
				msgLength = 4;
				msgBuffer[1] = STATUS_CMD_OK;
    7b80:	1a 82       	std	Y+2, r1	; 0x02
				msgBuffer[2] = fuseBits;
    7b82:	8b 83       	std	Y+3, r24	; 0x03
    7b84:	e5 cf       	rjmp	.-54     	; 0x7b50 <main+0x32a>
			break;

			case CMD_CHIP_ERASE_ISP:
				eraseAddress = 0;
				msgLength = 2;
				msgBuffer[1] = STATUS_CMD_OK;
    7b86:	1a 82       	std	Y+2, r1	; 0x02
				break;
    7b88:	71 2c       	mov	r7, r1
			}
			break;

			case CMD_CHIP_ERASE_ISP:
				eraseAddress = 0;
				msgLength = 2;
    7b8a:	22 e0       	ldi	r18, 0x02	; 2
    7b8c:	30 e0       	ldi	r19, 0x00	; 0
				msgBuffer[3] = STATUS_CMD_OK;
			}
			break;

			case CMD_CHIP_ERASE_ISP:
				eraseAddress = 0;
    7b8e:	c1 2c       	mov	r12, r1
    7b90:	d1 2c       	mov	r13, r1
				msgLength = 2;
				msgBuffer[1] = STATUS_CMD_OK;
				break;
    7b92:	b8 c0       	rjmp	.+368    	; 0x7d04 <main+0x4de>

			case CMD_LOAD_ADDRESS:
				address = ( ((msgBuffer[3])<<8)|(msgBuffer[4]) )<<1;  //convert word to byte address
    7b94:	fc 81       	ldd	r31, Y+4	; 0x04
    7b96:	c1 5e       	subi	r28, 0xE1	; 225
    7b98:	de 4f       	sbci	r29, 0xFE	; 254
    7b9a:	f8 83       	st	Y, r31
    7b9c:	cf 51       	subi	r28, 0x1F	; 31
    7b9e:	d1 40       	sbci	r29, 0x01	; 1
    7ba0:	c2 5e       	subi	r28, 0xE2	; 226
    7ba2:	de 4f       	sbci	r29, 0xFE	; 254
    7ba4:	18 82       	st	Y, r1
    7ba6:	ce 51       	subi	r28, 0x1E	; 30
    7ba8:	d1 40       	sbci	r29, 0x01	; 1
    7baa:	8d 81       	ldd	r24, Y+5	; 0x05
    7bac:	c2 5e       	subi	r28, 0xE2	; 226
    7bae:	de 4f       	sbci	r29, 0xFE	; 254
    7bb0:	08 81       	ld	r16, Y
    7bb2:	19 81       	ldd	r17, Y+1	; 0x01
    7bb4:	ce 51       	subi	r28, 0x1E	; 30
    7bb6:	d1 40       	sbci	r29, 0x01	; 1
    7bb8:	08 2b       	or	r16, r24
    7bba:	00 0f       	add	r16, r16
    7bbc:	11 1f       	adc	r17, r17
    7bbe:	61 c0       	rjmp	.+194    	; 0x7c82 <main+0x45c>
				break;

			case CMD_PROGRAM_FLASH_ISP:
			case CMD_PROGRAM_EEPROM_ISP:
			{
				unsigned int  size = (((unsigned int)msgBuffer[1])<<8) | msgBuffer[2];
    7bc0:	2a 81       	ldd	r18, Y+2	; 0x02
    7bc2:	cf 5d       	subi	r28, 0xDF	; 223
    7bc4:	de 4f       	sbci	r29, 0xFE	; 254
    7bc6:	28 83       	st	Y, r18
    7bc8:	c1 52       	subi	r28, 0x21	; 33
    7bca:	d1 40       	sbci	r29, 0x01	; 1
    7bcc:	c0 5e       	subi	r28, 0xE0	; 224
    7bce:	de 4f       	sbci	r29, 0xFE	; 254
    7bd0:	18 82       	st	Y, r1
    7bd2:	c0 52       	subi	r28, 0x20	; 32
    7bd4:	d1 40       	sbci	r29, 0x01	; 1
    7bd6:	9b 81       	ldd	r25, Y+3	; 0x03
    7bd8:	c0 5e       	subi	r28, 0xE0	; 224
    7bda:	de 4f       	sbci	r29, 0xFE	; 254
    7bdc:	28 81       	ld	r18, Y
    7bde:	39 81       	ldd	r19, Y+1	; 0x01
    7be0:	c0 52       	subi	r28, 0x20	; 32
    7be2:	d1 40       	sbci	r29, 0x01	; 1
    7be4:	29 2b       	or	r18, r25
				unsigned char *p = msgBuffer+10;
				unsigned int  data;
				unsigned char highByte, lowByte;
				address_t     tempaddress = address;

				if ( msgBuffer[0] == CMD_PROGRAM_FLASH_ISP )
    7be6:	83 31       	cpi	r24, 0x13	; 19
    7be8:	09 f0       	breq	.+2      	; 0x7bec <main+0x3c6>
    7bea:	39 c0       	rjmp	.+114    	; 0x7c5e <main+0x438>
				{
					// erase only main section (bootloader protection)
					if  (  eraseAddress < APP_END )
    7bec:	c1 14       	cp	r12, r1
    7bee:	88 e7       	ldi	r24, 0x78	; 120
    7bf0:	d8 06       	cpc	r13, r24
    7bf2:	58 f4       	brcc	.+22     	; 0x7c0a <main+0x3e4>
					{
						boot_page_erase(eraseAddress);	// Perform page erase
    7bf4:	83 e0       	ldi	r24, 0x03	; 3
    7bf6:	f6 01       	movw	r30, r12
    7bf8:	80 93 57 00 	sts	0x0057, r24
    7bfc:	e8 95       	spm
						boot_spm_busy_wait();		// Wait until the memory is erased.
    7bfe:	07 b6       	in	r0, 0x37	; 55
    7c00:	00 fc       	sbrc	r0, 0
    7c02:	fd cf       	rjmp	.-6      	; 0x7bfe <main+0x3d8>
						eraseAddress += SPM_PAGESIZE;    // point to next page to be erase
    7c04:	f0 e8       	ldi	r31, 0x80	; 128
    7c06:	cf 0e       	add	r12, r31
    7c08:	d1 1c       	adc	r13, r1
    7c0a:	8b 85       	ldd	r24, Y+11	; 0x0b
    7c0c:	de 01       	movw	r26, r28
    7c0e:	1c 96       	adiw	r26, 0x0c	; 12
				unsigned char fuseBits;

				if ( msgBuffer[2] == 0x50 )
				{
					if ( msgBuffer[3] == 0x08 )
						fuseBits = boot_lock_fuse_bits_get( GET_EXTENDED_FUSE_BITS );
    7c10:	a8 01       	movw	r20, r16
					do {
						lowByte   = *p++;
						highByte  = *p++;

						data =  (highByte << 8) | lowByte;
						boot_page_fill(address,data);
    7c12:	61 e0       	ldi	r22, 0x01	; 1
					/* Write FLASH */
					do {
						lowByte   = *p++;
						highByte  = *p++;

						data =  (highByte << 8) | lowByte;
    7c14:	5c 90       	ld	r5, X
    7c16:	41 2c       	mov	r4, r1
    7c18:	f2 01       	movw	r30, r4
    7c1a:	e8 2b       	or	r30, r24
    7c1c:	cf 01       	movw	r24, r30
						boot_page_fill(address,data);
    7c1e:	fa 01       	movw	r30, r20
    7c20:	0c 01       	movw	r0, r24
    7c22:	60 93 57 00 	sts	0x0057, r22
    7c26:	e8 95       	spm
    7c28:	11 24       	eor	r1, r1

						address = address + 2;  	// Select next word in memory
    7c2a:	4e 5f       	subi	r20, 0xFE	; 254
    7c2c:	5f 4f       	sbci	r21, 0xFF	; 255
						size -= 2;			// Reduce number of bytes to write by two
    7c2e:	22 50       	subi	r18, 0x02	; 2
    7c30:	31 09       	sbc	r19, r1
    7c32:	12 96       	adiw	r26, 0x02	; 2
					} while(size);			// Loop until all bytes written
    7c34:	21 15       	cp	r18, r1
    7c36:	31 05       	cpc	r19, r1
    7c38:	21 f0       	breq	.+8      	; 0x7c42 <main+0x41c>
	return UART_DATA_REG;
}


int main(void) __attribute__ ((OS_main));
int main(void)
    7c3a:	fd 01       	movw	r30, r26
    7c3c:	31 97       	sbiw	r30, 0x01	; 1
					}

					/* Write FLASH */
					do {
						lowByte   = *p++;
						highByte  = *p++;
    7c3e:	80 81       	ld	r24, Z
    7c40:	e9 cf       	rjmp	.-46     	; 0x7c14 <main+0x3ee>

						address = address + 2;  	// Select next word in memory
						size -= 2;			// Reduce number of bytes to write by two
					} while(size);			// Loop until all bytes written

					boot_page_write(tempaddress);
    7c42:	85 e0       	ldi	r24, 0x05	; 5
    7c44:	f8 01       	movw	r30, r16
    7c46:	80 93 57 00 	sts	0x0057, r24
    7c4a:	e8 95       	spm
					boot_spm_busy_wait();
    7c4c:	07 b6       	in	r0, 0x37	; 55
    7c4e:	00 fc       	sbrc	r0, 0
    7c50:	fd cf       	rjmp	.-6      	; 0x7c4c <main+0x426>
					boot_rww_enable();				// Re-enable the RWW section
    7c52:	81 e1       	ldi	r24, 0x11	; 17
    7c54:	80 93 57 00 	sts	0x0057, r24
    7c58:	e8 95       	spm
						highByte  = *p++;

						data =  (highByte << 8) | lowByte;
						boot_page_fill(address,data);

						address = address + 2;  	// Select next word in memory
    7c5a:	8a 01       	movw	r16, r20
    7c5c:	12 c0       	rjmp	.+36     	; 0x7c82 <main+0x45c>
	return UART_DATA_REG;
}


int main(void) __attribute__ ((OS_main));
int main(void)
    7c5e:	20 0f       	add	r18, r16
    7c60:	31 1f       	adc	r19, r17

			case CMD_PROGRAM_FLASH_ISP:
			case CMD_PROGRAM_EEPROM_ISP:
			{
				unsigned int  size = (((unsigned int)msgBuffer[1])<<8) | msgBuffer[2];
				unsigned char *p = msgBuffer+10;
    7c62:	de 01       	movw	r26, r28
    7c64:	1b 96       	adiw	r26, 0x0b	; 11
				}
				else
				{
					/* write EEPROM */
					do {
						wdt_reset();
    7c66:	a8 95       	wdr
						EEARL = address;			// Setup EEPROM address
    7c68:	01 bd       	out	0x21, r16	; 33
						EEARH = (address >> 8);
    7c6a:	12 bd       	out	0x22, r17	; 34
						address++;					// Select next EEPROM byte
    7c6c:	0f 5f       	subi	r16, 0xFF	; 255
    7c6e:	1f 4f       	sbci	r17, 0xFF	; 255

						EEDR= *p++;				    // get byte from buffer
    7c70:	8d 91       	ld	r24, X+
    7c72:	80 bd       	out	0x20, r24	; 32
						EECR |= (1<<EEMWE);			// Write data into EEPROM
    7c74:	fa 9a       	sbi	0x1f, 2	; 31
						EECR |= (1<<EEWE);
    7c76:	f9 9a       	sbi	0x1f, 1	; 31

						while (EECR & (1<<EEWE));	// Wait for write operation to finish
    7c78:	f9 99       	sbic	0x1f, 1	; 31
    7c7a:	fe cf       	rjmp	.-4      	; 0x7c78 <main+0x452>
						size--;						// Decrease number of bytes to write
					} while(size);					// Loop until all bytes written
    7c7c:	02 17       	cp	r16, r18
    7c7e:	13 07       	cpc	r17, r19
    7c80:	91 f7       	brne	.-28     	; 0x7c66 <main+0x440>
				}
				msgLength = 2;
				msgBuffer[1] = STATUS_CMD_OK;
    7c82:	1a 82       	std	Y+2, r1	; 0x02
    7c84:	3c c0       	rjmp	.+120    	; 0x7cfe <main+0x4d8>
			break;

			case CMD_READ_FLASH_ISP:
			case CMD_READ_EEPROM_ISP:
			{
				unsigned int  size = (((unsigned int)msgBuffer[1])<<8) | msgBuffer[2];
    7c86:	3a 80       	ldd	r3, Y+2	; 0x02
    7c88:	21 2c       	mov	r2, r1
    7c8a:	9b 81       	ldd	r25, Y+3	; 0x03
    7c8c:	a1 01       	movw	r20, r2
    7c8e:	49 2b       	or	r20, r25
				unsigned char *p = msgBuffer+1;
				msgLength = size+3;
    7c90:	9a 01       	movw	r18, r20
    7c92:	2d 5f       	subi	r18, 0xFD	; 253
    7c94:	3f 4f       	sbci	r19, 0xFF	; 255

				*p++ = STATUS_CMD_OK;
    7c96:	1a 82       	std	Y+2, r1	; 0x02
				if (msgBuffer[0] == CMD_READ_FLASH_ISP )
    7c98:	84 31       	cpi	r24, 0x14	; 20
    7c9a:	b9 f4       	brne	.+46     	; 0x7cca <main+0x4a4>
    7c9c:	be 01       	movw	r22, r28
    7c9e:	6c 5f       	subi	r22, 0xFC	; 252
    7ca0:	7f 4f       	sbci	r23, 0xFF	; 255
			{
				unsigned int  size = (((unsigned int)msgBuffer[1])<<8) | msgBuffer[2];
				unsigned char *p = msgBuffer+1;
				msgLength = size+3;

				*p++ = STATUS_CMD_OK;
    7ca2:	de 01       	movw	r26, r28
    7ca4:	13 96       	adiw	r26, 0x03	; 3
				{
					unsigned int data;

					// Read FLASH
					do {
						wdt_reset();
    7ca6:	a8 95       	wdr
						data = pgm_read_word_near(address);
    7ca8:	f8 01       	movw	r30, r16
    7caa:	a5 90       	lpm	r10, Z+
    7cac:	b4 90       	lpm	r11, Z+
						*p++ = (unsigned char)data;         //LSB
    7cae:	ac 92       	st	X, r10
						*p++ = (unsigned char)(data >> 8);	//MSB
    7cb0:	fb 01       	movw	r30, r22
    7cb2:	b0 82       	st	Z, r11
	return UART_DATA_REG;
}


int main(void) __attribute__ ((OS_main));
int main(void)
    7cb4:	12 96       	adiw	r26, 0x02	; 2
					do {
						wdt_reset();
						data = pgm_read_word_near(address);
						*p++ = (unsigned char)data;         //LSB
						*p++ = (unsigned char)(data >> 8);	//MSB
						address    += 2;  	 // Select next word in memory
    7cb6:	0e 5f       	subi	r16, 0xFE	; 254
    7cb8:	1f 4f       	sbci	r17, 0xFF	; 255
						size -= 2;
    7cba:	42 50       	subi	r20, 0x02	; 2
    7cbc:	51 09       	sbc	r21, r1
    7cbe:	6e 5f       	subi	r22, 0xFE	; 254
    7cc0:	7f 4f       	sbci	r23, 0xFF	; 255
					}while (size);
    7cc2:	41 15       	cp	r20, r1
    7cc4:	51 05       	cpc	r21, r1
    7cc6:	79 f7       	brne	.-34     	; 0x7ca6 <main+0x480>
    7cc8:	15 c0       	rjmp	.+42     	; 0x7cf4 <main+0x4ce>
	return UART_DATA_REG;
}


int main(void) __attribute__ ((OS_main));
int main(void)
    7cca:	c8 01       	movw	r24, r16
    7ccc:	84 0f       	add	r24, r20
    7cce:	95 1f       	adc	r25, r21
			{
				unsigned int  size = (((unsigned int)msgBuffer[1])<<8) | msgBuffer[2];
				unsigned char *p = msgBuffer+1;
				msgLength = size+3;

				*p++ = STATUS_CMD_OK;
    7cd0:	de 01       	movw	r26, r28
    7cd2:	13 96       	adiw	r26, 0x03	; 3
				}
				else
				{
					/* Read EEPROM */
					do {
						EEARL = address;			// Setup EEPROM address
    7cd4:	01 bd       	out	0x21, r16	; 33
						EEARH = ((address >> 8));
    7cd6:	12 bd       	out	0x22, r17	; 34
						address++;					// Select next EEPROM byte
    7cd8:	0f 5f       	subi	r16, 0xFF	; 255
    7cda:	1f 4f       	sbci	r17, 0xFF	; 255
						EECR |= (1<<EERE);			// Read EEPROM
    7cdc:	f8 9a       	sbi	0x1f, 0	; 31
						*p++ = EEDR;				// Send EEPROM data
    7cde:	60 b5       	in	r22, 0x20	; 32
    7ce0:	6d 93       	st	X+, r22
						size--;
					}while(size);
    7ce2:	08 17       	cp	r16, r24
    7ce4:	19 07       	cpc	r17, r25
    7ce6:	b1 f7       	brne	.-20     	; 0x7cd4 <main+0x4ae>
    7ce8:	a3 e0       	ldi	r26, 0x03	; 3
    7cea:	b0 e0       	ldi	r27, 0x00	; 0
    7cec:	ac 0f       	add	r26, r28
    7cee:	bd 1f       	adc	r27, r29
    7cf0:	a4 0f       	add	r26, r20
    7cf2:	b5 1f       	adc	r27, r21
				}
				*p++ = STATUS_CMD_OK;
    7cf4:	1c 92       	st	X, r1
			}
			break;
    7cf6:	71 2c       	mov	r7, r1
    7cf8:	05 c0       	rjmp	.+10     	; 0x7d04 <main+0x4de>

			default:
				msgLength = 2;
				msgBuffer[1] = STATUS_CMD_FAILED;
    7cfa:	80 ec       	ldi	r24, 0xC0	; 192
    7cfc:	8a 83       	std	Y+2, r24	; 0x02
				break;
    7cfe:	71 2c       	mov	r7, r1
				*p++ = STATUS_CMD_OK;
			}
			break;

			default:
				msgLength = 2;
    7d00:	22 e0       	ldi	r18, 0x02	; 2
    7d02:	30 e0       	ldi	r19, 0x00	; 0
			}

			/*
			 * Now send answer message back
			 */
			sendchar(MESSAGE_START);     
    7d04:	8b e1       	ldi	r24, 0x1B	; 27
    7d06:	cc 5d       	subi	r28, 0xDC	; 220
    7d08:	de 4f       	sbci	r29, 0xFE	; 254
    7d0a:	28 83       	st	Y, r18
    7d0c:	c4 52       	subi	r28, 0x24	; 36
    7d0e:	d1 40       	sbci	r29, 0x01	; 1
    7d10:	cb 5d       	subi	r28, 0xDB	; 219
    7d12:	de 4f       	sbci	r29, 0xFE	; 254
    7d14:	38 83       	st	Y, r19
    7d16:	c5 52       	subi	r28, 0x25	; 37
    7d18:	d1 40       	sbci	r29, 0x01	; 1
    7d1a:	0e 94 07 3c 	call	0x780e	; 0x780e <sendchar>
			checksum = MESSAGE_START^0;

			sendchar(seqNum);
    7d1e:	89 2d       	mov	r24, r9
    7d20:	0e 94 07 3c 	call	0x780e	; 0x780e <sendchar>
			checksum ^= seqNum;

			c = ((msgLength>>8)&0xFF);
    7d24:	cb 5d       	subi	r28, 0xDB	; 219
    7d26:	de 4f       	sbci	r29, 0xFE	; 254
    7d28:	38 81       	ld	r19, Y
    7d2a:	c5 52       	subi	r28, 0x25	; 37
    7d2c:	d1 40       	sbci	r29, 0x01	; 1
    7d2e:	b3 2e       	mov	r11, r19
			sendchar(c);
    7d30:	83 2f       	mov	r24, r19
    7d32:	0e 94 07 3c 	call	0x780e	; 0x780e <sendchar>
			checksum ^= c;

			c = msgLength&0x00FF;
    7d36:	cc 5d       	subi	r28, 0xDC	; 220
    7d38:	de 4f       	sbci	r29, 0xFE	; 254
    7d3a:	28 81       	ld	r18, Y
    7d3c:	c4 52       	subi	r28, 0x24	; 36
    7d3e:	d1 40       	sbci	r29, 0x01	; 1
    7d40:	a2 2e       	mov	r10, r18
			sendchar(c);
    7d42:	82 2f       	mov	r24, r18
    7d44:	0e 94 07 3c 	call	0x780e	; 0x780e <sendchar>
			checksum ^= c;

			sendchar(TOKEN);
    7d48:	8e e0       	ldi	r24, 0x0E	; 14
    7d4a:	0e 94 07 3c 	call	0x780e	; 0x780e <sendchar>
			sendchar(seqNum);
			checksum ^= seqNum;

			c = ((msgLength>>8)&0xFF);
			sendchar(c);
			checksum ^= c;
    7d4e:	95 e1       	ldi	r25, 0x15	; 21
    7d50:	89 2e       	mov	r8, r25
    7d52:	89 24       	eor	r8, r9

			c = msgLength&0x00FF;
			sendchar(c);
			checksum ^= c;
    7d54:	8a 24       	eor	r8, r10

			sendchar(TOKEN);
			checksum ^= TOKEN;
    7d56:	8b 24       	eor	r8, r11
	return UART_DATA_REG;
}


int main(void) __attribute__ ((OS_main));
int main(void)
    7d58:	cc 5d       	subi	r28, 0xDC	; 220
    7d5a:	de 4f       	sbci	r29, 0xFE	; 254
    7d5c:	28 81       	ld	r18, Y
    7d5e:	c4 52       	subi	r28, 0x24	; 36
    7d60:	d1 40       	sbci	r29, 0x01	; 1
    7d62:	cb 5d       	subi	r28, 0xDB	; 219
    7d64:	de 4f       	sbci	r29, 0xFE	; 254
    7d66:	38 81       	ld	r19, Y
    7d68:	c5 52       	subi	r28, 0x25	; 37
    7d6a:	d1 40       	sbci	r29, 0x01	; 1
    7d6c:	81 e0       	ldi	r24, 0x01	; 1
    7d6e:	90 e0       	ldi	r25, 0x00	; 0
    7d70:	8c 0f       	add	r24, r28
    7d72:	9d 1f       	adc	r25, r29
    7d74:	28 0f       	add	r18, r24
    7d76:	39 1f       	adc	r19, r25
			checksum ^= c;

			sendchar(TOKEN);
			checksum ^= TOKEN;

			p = msgBuffer;
    7d78:	5c 01       	movw	r10, r24
			while ( msgLength )
    7d7a:	1c c0       	rjmp	.+56     	; 0x7db4 <main+0x58e>
			{
				c = *p++;
    7d7c:	f5 01       	movw	r30, r10
    7d7e:	61 90       	ld	r6, Z+
    7d80:	5f 01       	movw	r10, r30
				sendchar(c);
    7d82:	86 2d       	mov	r24, r6
    7d84:	cc 5d       	subi	r28, 0xDC	; 220
    7d86:	de 4f       	sbci	r29, 0xFE	; 254
    7d88:	28 83       	st	Y, r18
    7d8a:	c4 52       	subi	r28, 0x24	; 36
    7d8c:	d1 40       	sbci	r29, 0x01	; 1
    7d8e:	cb 5d       	subi	r28, 0xDB	; 219
    7d90:	de 4f       	sbci	r29, 0xFE	; 254
    7d92:	38 83       	st	Y, r19
    7d94:	c5 52       	subi	r28, 0x25	; 37
    7d96:	d1 40       	sbci	r29, 0x01	; 1
    7d98:	0e 94 07 3c 	call	0x780e	; 0x780e <sendchar>
				checksum ^=c;
    7d9c:	86 24       	eor	r8, r6
				msgLength--;
				wdt_reset();
    7d9e:	a8 95       	wdr
    7da0:	cb 5d       	subi	r28, 0xDB	; 219
    7da2:	de 4f       	sbci	r29, 0xFE	; 254
    7da4:	38 81       	ld	r19, Y
    7da6:	c5 52       	subi	r28, 0x25	; 37
    7da8:	d1 40       	sbci	r29, 0x01	; 1
    7daa:	cc 5d       	subi	r28, 0xDC	; 220
    7dac:	de 4f       	sbci	r29, 0xFE	; 254
    7dae:	28 81       	ld	r18, Y
    7db0:	c4 52       	subi	r28, 0x24	; 36
    7db2:	d1 40       	sbci	r29, 0x01	; 1

			sendchar(TOKEN);
			checksum ^= TOKEN;

			p = msgBuffer;
			while ( msgLength )
    7db4:	a2 16       	cp	r10, r18
    7db6:	b3 06       	cpc	r11, r19
    7db8:	09 f7       	brne	.-62     	; 0x7d7c <main+0x556>
				sendchar(c);
				checksum ^=c;
				msgLength--;
				wdt_reset();
			}                   
			sendchar(checksum);	        
    7dba:	88 2d       	mov	r24, r8
    7dbc:	0e 94 07 3c 	call	0x780e	; 0x780e <sendchar>
			seqNum++;
    7dc0:	93 94       	inc	r9
    7dc2:	20 e0       	ldi	r18, 0x00	; 0
    7dc4:	30 e0       	ldi	r19, 0x00	; 0


	if (boot_state==1)
	{
		//*	main loop
		while (!isLeave)
    7dc6:	77 20       	and	r7, r7
    7dc8:	09 f4       	brne	.+2      	; 0x7dcc <main+0x5a6>
    7dca:	cc cd       	rjmp	.-1128   	; 0x7964 <main+0x13e>
    7dcc:	ac cd       	rjmp	.-1192   	; 0x7926 <main+0x100>
    7dce:	ff cf       	rjmp	.-2      	; 0x7dce <main+0x5a8>
				switch (msgParseState){
				case ST_START:
					if ( c == MESSAGE_START )
					{
						msgParseState	=	ST_GET_SEQ_NUM;
						checksum		=	MESSAGE_START^0;
    7dd0:	8b e1       	ldi	r24, 0x1B	; 27
    7dd2:	88 2e       	mov	r8, r24

				switch (msgParseState){
				case ST_START:
					if ( c == MESSAGE_START )
					{
						msgParseState	=	ST_GET_SEQ_NUM;
    7dd4:	81 e0       	ldi	r24, 0x01	; 1
    7dd6:	cb cd       	rjmp	.-1130   	; 0x796e <main+0x148>
				case ST_GET_DATA:
					msgBuffer[ii++]	=	c;
					checksum		^=	c;
					if (ii == msgLength )
					{
						msgParseState	=	ST_GET_CHECK;
    7dd8:	86 e0       	ldi	r24, 0x06	; 6
    7dda:	c9 cd       	rjmp	.-1134   	; 0x796e <main+0x148>
					{
						msgParseState	=	ST_PROCESS;
					}
					else
					{
						msgParseState	=	ST_START;
    7ddc:	80 e0       	ldi	r24, 0x00	; 0
    7dde:	c7 cd       	rjmp	.-1138   	; 0x796e <main+0x148>
