   1               		.file	"stk500boot.c"
   2               	__SREG__ = 0x3f
   3               	__SP_H__ = 0x3e
   4               	__SP_L__ = 0x3d
   5               	__CCP__ = 0x34
   6               	__tmp_reg__ = 0
   7               	__zero_reg__ = 1
  15               	.Ltext0:
  17               	sendchar:
  18               	.LFB7:
  19               	.LM1:
  20               	.LVL0:
  21               	/* prologue: function */
  22               	/* frame size = 0 */
  23               	/* stack size = 0 */
  24               	.L__stack_usage = 0
  25               	.LM2:
  26 0000 8093 C600 		sts 198,r24
  27               	.LVL1:
  28               	.L2:
  29               	.LM3:
  30 0004 8091 C000 		lds r24,192
  31 0008 86FF      		sbrs r24,6
  32 000a 00C0      		rjmp .L2
  33               	.LM4:
  34 000c 8091 C000 		lds r24,192
  35 0010 8064      		ori r24,lo8(64)
  36 0012 8093 C000 		sts 192,r24
  37               	/* epilogue start */
  38               	.LM5:
  39 0016 0895      		ret
  40               	.LFE7:
  42               		.section	.init9,"ax",@progbits
  43               	.global	__jumpMain
  45               	__jumpMain:
  46               	.LFB6:
  47               	.LSM0:
  48               	/* prologue: naked */
  49               	/* frame size = 0 */
  50               	/* stack size = 0 */
  51               	.L__stack_usage = 0
  52               	.LSM1:
  53               	/* #APP */
  54               	 ;  269 "stk500boot.c" 1
  55               		.set __stack, 2303
  56               	 ;  0 "" 2
  57               	.LSM2:
  58               	 ;  272 "stk500boot.c" 1
  59 0000 8FEF      		ldi r24,255
  60               	 ;  0 "" 2
  61               	.LSM3:
  62               	 ;  273 "stk500boot.c" 1
  63 0002 98E0      		ldi r25,8
  64               	 ;  0 "" 2
  65               	.LSM4:
  66               	 ;  274 "stk500boot.c" 1
  67 0004 9EBF      		out __SP_H__,r25
  68               	 ;  0 "" 2
  69               	.LSM5:
  70               	 ;  275 "stk500boot.c" 1
  71 0006 8DBF      		out __SP_L__,r24
  72               	 ;  0 "" 2
  73               	.LSM6:
  74               	 ;  277 "stk500boot.c" 1
  75 0008 1124      		clr __zero_reg__
  76               	 ;  0 "" 2
  77               	.LSM7:
  78               	 ;  278 "stk500boot.c" 1
  79 000a 1FBE      		out 63, __zero_reg__
  80               	 ;  0 "" 2
  81               	.LSM8:
  82               	 ;  279 "stk500boot.c" 1
  83 000c 00C0      		rjmp main
  84               	 ;  0 "" 2
  85               	/* epilogue start */
  86               	.LSM9:
  87               	/* #NOAPP */
  88               	.LFE6:
  90               		.text
  91               	.global	main
  93               	main:
  94               	.LFB10:
  95               	.LM6:
  96 0018 CDB7      		in r28,__SP_L__
  97 001a DEB7      		in r29,__SP_H__
  98 001c C952      		subi r28,lo8(-(-297))
  99 001e D140      		sbci r29,hi8(-(-297))
 100 0020 DEBF      		out __SP_H__, r29
 101 0022 CDBF      		out __SP_L__, r28
 102               	/* prologue: function */
 103               	/* frame size = 297 */
 104               	/* stack size = 297 */
 105               	.L__stack_usage = 297
 106               	.LVL2:
 107               	.LM7:
 108 0024 8091 C000 		lds r24,192
 109 0028 8260      		ori r24,lo8(2)
 110 002a 8093 C000 		sts 192,r24
 111               	.LM8:
 112 002e 80E1      		ldi r24,lo8(16)
 113 0030 8093 C400 		sts 196,r24
 114               	.LM9:
 115 0034 88E1      		ldi r24,lo8(24)
 116 0036 8093 C100 		sts 193,r24
 117               	.LVL3:
 118               	.LM10:
 119 003a 81E0      		ldi r24,lo8(1)
 120 003c 8983      		std Y+1,r24
 121               	.LM11:
 122 003e 1A82      		std Y+2,__zero_reg__
 123               	.LM12:
 124 0040 88E0      		ldi r24,lo8(8)
 125 0042 8B83      		std Y+3,r24
 126               	.LM13:
 127 0044 81E4      		ldi r24,lo8(65)
 128 0046 8C83      		std Y+4,r24
 129               	.LM14:
 130 0048 86E5      		ldi r24,lo8(86)
 131 004a 8D83      		std Y+5,r24
 132               	.LM15:
 133 004c 82E5      		ldi r24,lo8(82)
 134 004e 8E83      		std Y+6,r24
 135               	.LM16:
 136 0050 89E4      		ldi r24,lo8(73)
 137 0052 8F83      		std Y+7,r24
 138               	.LM17:
 139 0054 83E5      		ldi r24,lo8(83)
 140 0056 8887      		std Y+8,r24
 141               	.LM18:
 142 0058 80E5      		ldi r24,lo8(80)
 143 005a 8987      		std Y+9,r24
 144               	.LM19:
 145 005c 8FE5      		ldi r24,lo8(95)
 146 005e 8A87      		std Y+10,r24
 147               	.LM20:
 148 0060 82E3      		ldi r24,lo8(50)
 149 0062 8B87      		std Y+11,r24
 150               	.LM21:
 151 0064 8BE1      		ldi r24,lo8(27)
 152 0066 0E94 0000 		call sendchar
 153               	.LVL4:
 154               	.LM22:
 155 006a 81E0      		ldi r24,lo8(1)
 156 006c 0E94 0000 		call sendchar
 157               	.LVL5:
 158               	.LM23:
 159 0070 80E0      		ldi r24,lo8(0)
 160 0072 0E94 0000 		call sendchar
 161               	.LVL6:
 162               	.LM24:
 163 0076 8BE0      		ldi r24,lo8(11)
 164 0078 0E94 0000 		call sendchar
 165               	.LVL7:
 166               	.LM25:
 167 007c 8EE0      		ldi r24,lo8(14)
 168 007e 0E94 0000 		call sendchar
 169               	.LVL8:
 170               	.LM26:
 171 0082 7CE0      		ldi r23,lo8(12)
 172 0084 E72E      		mov r14,r23
 173 0086 F12C      		mov r15,__zero_reg__
 174 0088 EC0E      		add r14,r28
 175 008a FD1E      		adc r15,r29
 176               	.LM27:
 177 008c 8E01      		movw r16,r28
 178 008e 0F5F      		subi r16,lo8(-(1))
 179 0090 1F4F      		sbci r17,hi8(-(1))
 180               	.LM28:
 181 0092 6FE1      		ldi r22,lo8(31)
 182 0094 A62E      		mov r10,r22
 183               	.LVL9:
 184               	.L6:
 185               	.LM29:
 186 0096 F801      		movw r30,r16
 187 0098 D190      		ld r13,Z+
 188 009a 8F01      		movw r16,r30
 189               	.LVL10:
 190               	.LM30:
 191 009c 8D2D      		mov r24,r13
 192 009e 0E94 0000 		call sendchar
 193               	.LVL11:
 194               	.LM31:
 195 00a2 AD24      		eor r10,r13
 196               	.LVL12:
 197               	.LM32:
 198 00a4 0E15      		cp r16,r14
 199 00a6 1F05      		cpc r17,r15
 200 00a8 01F4      		brne .L6
 201               	.LM33:
 202 00aa 8A2D      		mov r24,r10
 203 00ac 0E94 0000 		call sendchar
 204               	.LVL13:
 205               	.LM34:
 206 00b0 80E0      		ldi r24,lo8(0)
 207 00b2 90E0      		ldi r25,hi8(0)
 208 00b4 DC01      		movw r26,r24
 209 00b6 00C0      		rjmp .L100
 210               	.LVL14:
 211               	.L10:
 212               	.LBB23:
 213               	.LBB24:
 214               	.LM35:
 215 00b8 F5E0      		 ldi r31,lo8(5)
 216 00ba FA95      	    1:dec r31
 217 00bc 01F4      	    brne 1b
 218 00be 0000      		nop
 219               	.LBE24:
 220               	.LBE23:
 221               	.LM36:
 222 00c0 0196      		adiw r24,1
 223 00c2 A11D      		adc r26,__zero_reg__
 224 00c4 B11D      		adc r27,__zero_reg__
 225               	.LVL15:
 226               	.LM37:
 227 00c6 21E0      		ldi r18,lo8(1)
 228 00c8 30E0      		ldi r19,hi8(1)
 229               	.LVL16:
 230 00ca 8139      		cpi r24,lo8(250001)
 231 00cc 10ED      		ldi r17,hi8(250001)
 232 00ce 9107      		cpc r25,r17
 233 00d0 13E0      		ldi r17,hlo8(250001)
 234 00d2 A107      		cpc r26,r17
 235 00d4 10E0      		ldi r17,hhi8(250001)
 236 00d6 B107      		cpc r27,r17
 237 00d8 00F4      		brsh .L96
 238               	.LVL17:
 239               	.L100:
 240 00da 20E0      		ldi r18,lo8(0)
 241 00dc 30E0      		ldi r19,hi8(0)
 242               	.L96:
 243               	.LVL18:
 244               	.LBB25:
 245               	.LBB26:
 246               	.LM38:
 247 00de 4091 C000 		lds r20,192
 248               	.LBE26:
 249               	.LBE25:
 250               	.LM39:
 251 00e2 47FD      		sbrc r20,7
 252 00e4 00C0      		rjmp .L9
 253               	.LM40:
 254 00e6 2115      		cp r18,__zero_reg__
 255 00e8 3105      		cpc r19,__zero_reg__
 256 00ea 01F0      		breq .L10
 257               	.L9:
 258               	.LVL19:
 259               	.LM41:
 260 00ec 2F5F      		subi r18,lo8(-(1))
 261 00ee 3F4F      		sbci r19,hi8(-(1))
 262               	.LVL20:
 263               	.LM42:
 264 00f0 2130      		cpi r18,1
 265 00f2 3105      		cpc r19,__zero_reg__
 266 00f4 01F0      		breq .+2
 267 00f6 00C0      		rjmp .L13
 268               	.LM43:
 269 00f8 8824      		clr r8
 270 00fa 9924      		clr r9
 271 00fc EE24      		clr r14
 272 00fe FF24      		clr r15
 273 0100 52E0      		ldi r21,lo8(2)
 274 0102 B52E      		mov r11,r21
 275 0104 6624      		clr r6
 276 0106 7724      		clr r7
 277               	.LBB27:
 278               	.LBB28:
 279               	.LBB29:
 280               	.LBB30:
 281               	.LM44:
 282 0108 F401      		movw r30,r8
 283               	/* #APP */
 284               	 ;  315 "stk500boot.c" 1
 285 010a 8591      		lpm r24, Z+
 286 010c 9491      		lpm r25, Z
 287               		
 288               	 ;  0 "" 2
 289               	/* #NOAPP */
 290 010e CA5D      		subi r28,lo8(-294)
 291 0110 DE4F      		sbci r29,hi8(-294)
 292 0112 9983      		std Y+1,r25
 293 0114 8883      		st Y,r24
 294 0116 C652      		subi r28,lo8(294)
 295 0118 D140      		sbci r29,hi8(294)
 296               	.LBE30:
 297               	.LBE29:
 298               	.LBE28:
 299               	.LBE27:
 300               	.LM45:
 301 011a 2E01      		movw r4,r28
 302 011c 0894      		sec
 303 011e 411C      		adc r4,__zero_reg__
 304 0120 511C      		adc r5,__zero_reg__
 305               	.LBB33:
 306               	.LM46:
 307 0122 4BE0      		ldi r20,lo8(11)
 308 0124 242E      		mov r2,r20
 309 0126 312C      		mov r3,__zero_reg__
 310 0128 2C0E      		add r2,r28
 311 012a 3D1E      		adc r3,r29
 312 012c 00C0      		rjmp .L14
 313               	.LVL21:
 314               	.L32:
 315               	.LBE33:
 316               	.LM47:
 317 012e 20E0      		ldi r18,lo8(0)
 318 0130 30E0      		ldi r19,hi8(0)
 319               	.LVL22:
 320               	.L70:
 321               	.LM48:
 322 0132 2130      		cpi r18,1
 323 0134 3105      		cpc r19,__zero_reg__
 324 0136 01F4      		brne .L72
 325 0138 00C0      		rjmp .L101
 326               	.LVL23:
 327               	.L19:
 328               	.LBB34:
 329               	.LBB32:
 330               	.LM49:
 331 013a 2F5F      		subi r18,lo8(-(1))
 332 013c 3F4F      		sbci r19,hi8(-(1))
 333 013e 4F4F      		sbci r20,hlo8(-(1))
 334 0140 5F4F      		sbci r21,hhi8(-(1))
 335               	.LVL24:
 336               	.LM50:
 337 0142 2130      		cpi r18,lo8(8000001)
 338 0144 92E1      		ldi r25,hi8(8000001)
 339 0146 3907      		cpc r19,r25
 340 0148 9AE7      		ldi r25,hlo8(8000001)
 341 014a 4907      		cpc r20,r25
 342 014c 90E0      		ldi r25,hhi8(8000001)
 343 014e 5907      		cpc r21,r25
 344 0150 00F0      		brlo .L97
 345               	.LBB31:
 346               	.LM51:
 347 0152 CA5D      		subi r28,lo8(-294)
 348 0154 DE4F      		sbci r29,hi8(-294)
 349 0156 E881      		ld r30,Y
 350 0158 F981      		ldd r31,Y+1
 351 015a C652      		subi r28,lo8(294)
 352 015c D140      		sbci r29,hi8(294)
 353 015e 1FEF      		ldi r17,hi8(-1)
 354 0160 EF3F      		cpi r30,lo8(-1)
 355 0162 F107      		cpc r31,r17
 356 0164 01F0      		breq .L72
 357               	.LM52:
 358               	/* #APP */
 359               	 ;  319 "stk500boot.c" 1
 360 0166 EE27      		clr	r30		
 361 0168 FF27      		clr	r31		
 362 016a 0994      		ijmp	
 363               		
 364               	 ;  0 "" 2
 365               	.LVL25:
 366               	/* #NOAPP */
 367               	.L72:
 368               	.LM53:
 369 016c 20E0      		ldi r18,lo8(0)
 370 016e 30E0      		ldi r19,hi8(0)
 371 0170 A901      		movw r20,r18
 372               	.L97:
 373               	.LVL26:
 374               	.LBE31:
 375               	.LM54:
 376 0172 9091 C000 		lds r25,192
 377 0176 97FF      		sbrs r25,7
 378 0178 00C0      		rjmp .L19
 379               	.LVL27:
 380               	.L101:
 381               	.LM55:
 382 017a 2091 C600 		lds r18,198
 383               	.LVL28:
 384               	.LBE32:
 385               	.LBE34:
 386               	.LM56:
 387 017e 8330      		cpi r24,lo8(3)
 388 0180 01F0      		breq .L24
 389 0182 8430      		cpi r24,lo8(4)
 390 0184 00F4      		brsh .L28
 391 0186 8130      		cpi r24,lo8(1)
 392 0188 01F0      		breq .L22
 393 018a 8230      		cpi r24,lo8(2)
 394 018c 00F4      		brsh .L23
 395 018e 00C0      		rjmp .L108
 396               	.L28:
 397 0190 8530      		cpi r24,lo8(5)
 398 0192 01F0      		breq .L26
 399 0194 8530      		cpi r24,lo8(5)
 400 0196 00F0      		brlo .L25
 401 0198 8630      		cpi r24,lo8(6)
 402 019a 01F4      		brne .L99
 403 019c 00C0      		rjmp .L109
 404               	.L108:
 405               	.LM57:
 406 019e 2B31      		cpi r18,lo8(27)
 407 01a0 01F4      		brne .L32
 408 01a2 00C0      		rjmp .L110
 409               	.L22:
 410               	.LM58:
 411 01a4 2130      		cpi r18,lo8(1)
 412 01a6 01F0      		breq .L30
 413               	.LM59:
 414 01a8 2B15      		cp r18,r11
 415 01aa 01F0      		breq .+2
 416 01ac 00C0      		rjmp .L75
 417               	.L30:
 418               	.LVL29:
 419               	.LM60:
 420 01ae A226      		eor r10,r18
 421               	.LVL30:
 422 01b0 B22E      		mov r11,r18
 423               	.LM61:
 424 01b2 82E0      		ldi r24,lo8(2)
 425               	.LM62:
 426 01b4 00C0      		rjmp .L32
 427               	.LVL31:
 428               	.L23:
 429               	.LM63:
 430 01b6 722F      		mov r23,r18
 431 01b8 60E0      		ldi r22,lo8(0)
 432               	.LVL32:
 433               	.LM64:
 434 01ba A226      		eor r10,r18
 435               	.LVL33:
 436               	.LM65:
 437 01bc 83E0      		ldi r24,lo8(3)
 438               	.LM66:
 439 01be 00C0      		rjmp .L32
 440               	.LVL34:
 441               	.L24:
 442               	.LM67:
 443 01c0 822F      		mov r24,r18
 444 01c2 90E0      		ldi r25,lo8(0)
 445 01c4 682B      		or r22,r24
 446 01c6 792B      		or r23,r25
 447               	.LVL35:
 448               	.LM68:
 449 01c8 A226      		eor r10,r18
 450               	.LVL36:
 451               	.LM69:
 452 01ca 84E0      		ldi r24,lo8(4)
 453               	.LM70:
 454 01cc 00C0      		rjmp .L32
 455               	.LVL37:
 456               	.L25:
 457               	.LM71:
 458 01ce 2E30      		cpi r18,lo8(14)
 459 01d0 01F0      		breq .+2
 460 01d2 00C0      		rjmp .L75
 461               	.LVL38:
 462               	.LM72:
 463 01d4 A226      		eor r10,r18
 464               	.LVL39:
 465               	.LM73:
 466 01d6 6624      		clr r6
 467 01d8 7724      		clr r7
 468               	.LM74:
 469 01da 85E0      		ldi r24,lo8(5)
 470 01dc 00C0      		rjmp .L32
 471               	.LVL40:
 472               	.L26:
 473               	.LM75:
 474 01de F201      		movw r30,r4
 475 01e0 E60D      		add r30,r6
 476 01e2 F71D      		adc r31,r7
 477 01e4 2083      		st Z,r18
 478 01e6 0894      		sec
 479 01e8 611C      		adc r6,__zero_reg__
 480 01ea 711C      		adc r7,__zero_reg__
 481               	.LVL41:
 482               	.LM76:
 483 01ec A226      		eor r10,r18
 484               	.LVL42:
 485               	.LM77:
 486 01ee 6616      		cp r6,r22
 487 01f0 7706      		cpc r7,r23
 488 01f2 01F0      		breq .+2
 489 01f4 00C0      		rjmp .L32
 490 01f6 00C0      		rjmp .L111
 491               	.LVL43:
 492               	.L109:
 493               	.LM78:
 494 01f8 2A15      		cp r18,r10
 495 01fa 01F0      		breq .+2
 496 01fc 00C0      		rjmp .L75
 497 01fe 00C0      		rjmp .L31
 498               	.L99:
 499               	.LVL44:
 500               	.LM79:
 501 0200 8730      		cpi r24,lo8(7)
 502 0202 01F0      		breq .+2
 503 0204 00C0      		rjmp .L32
 504               	.LVL45:
 505               	.L31:
 506               	.LM80:
 507 0206 4981      		ldd r20,Y+1
 508 0208 4331      		cpi r20,lo8(19)
 509 020a 01F4      		brne .+2
 510 020c 00C0      		rjmp .L40
 511 020e 4431      		cpi r20,lo8(20)
 512 0210 00F4      		brsh .L46
 513 0212 4630      		cpi r20,lo8(6)
 514 0214 01F4      		brne .+2
 515 0216 00C0      		rjmp .L37
 516 0218 4730      		cpi r20,lo8(7)
 517 021a 00F4      		brsh .L47
 518 021c 4230      		cpi r20,lo8(2)
 519 021e 01F0      		breq .L35
 520 0220 4330      		cpi r20,lo8(3)
 521 0222 01F4      		brne .+2
 522 0224 00C0      		rjmp .L36
 523 0226 4130      		cpi r20,lo8(1)
 524 0228 01F0      		breq .+2
 525 022a 00C0      		rjmp .L33
 526 022c 00C0      		rjmp .L112
 527               	.L47:
 528 022e 4131      		cpi r20,lo8(17)
 529 0230 01F4      		brne .+2
 530 0232 00C0      		rjmp .L77
 531 0234 4231      		cpi r20,lo8(18)
 532 0236 00F0      		brlo .+2
 533 0238 00C0      		rjmp .L39
 534 023a 4031      		cpi r20,lo8(16)
 535 023c 01F0      		breq .+2
 536 023e 00C0      		rjmp .L33
 537 0240 00C0      		rjmp .L35
 538               	.L46:
 539 0242 4831      		cpi r20,lo8(24)
 540 0244 01F4      		brne .+2
 541 0246 00C0      		rjmp .L42
 542 0248 4931      		cpi r20,lo8(25)
 543 024a 00F4      		brsh .L48
 544 024c 4531      		cpi r20,lo8(21)
 545 024e 01F4      		brne .+2
 546 0250 00C0      		rjmp .L40
 547 0252 4531      		cpi r20,lo8(21)
 548 0254 00F4      		brsh .+2
 549 0256 00C0      		rjmp .L41
 550 0258 4631      		cpi r20,lo8(22)
 551 025a 01F0      		breq .+2
 552 025c 00C0      		rjmp .L33
 553 025e 00C0      		rjmp .L41
 554               	.L48:
 555 0260 4B31      		cpi r20,lo8(27)
 556 0262 01F4      		brne .+2
 557 0264 00C0      		rjmp .L44
 558 0266 4D31      		cpi r20,lo8(29)
 559 0268 01F0      		breq .L45
 560 026a 4A31      		cpi r20,lo8(26)
 561 026c 01F0      		breq .+2
 562 026e 00C0      		rjmp .L33
 563 0270 00C0      		rjmp .L113
 564               	.L35:
 565 0272 90E0      		ldi r25,lo8(0)
 566 0274 00C0      		rjmp .L38
 567               	.L45:
 568               	.LVL46:
 569               	.LBB35:
 570               	.LM81:
 571 0276 9D81      		ldd r25,Y+5
 572 0278 9033      		cpi r25,lo8(48)
 573 027a 01F4      		brne .L78
 574               	.LBB36:
 575               	.LM82:
 576 027c 8F81      		ldd r24,Y+7
 577               	.LVL47:
 578               	.LM83:
 579 027e 8823      		tst r24
 580 0280 01F0      		breq .L79
 581               	.LM84:
 582 0282 8130      		cpi r24,lo8(1)
 583 0284 01F4      		brne .L80
 584               	.LM85:
 585 0286 85E9      		ldi r24,lo8(-107)
 586 0288 00C0      		rjmp .L49
 587               	.LVL48:
 588               	.L78:
 589               	.LBE36:
 590               	.LM86:
 591 028a 80E0      		ldi r24,lo8(0)
 592 028c 00C0      		rjmp .L49
 593               	.LVL49:
 594               	.L79:
 595               	.LBB37:
 596               	.LM87:
 597 028e 8EE1      		ldi r24,lo8(30)
 598               	.LVL50:
 599 0290 00C0      		rjmp .L49
 600               	.L80:
 601               	.LM88:
 602 0292 8FE0      		ldi r24,lo8(15)
 603               	.LVL51:
 604               	.L49:
 605               	.LBE37:
 606               	.LM89:
 607 0294 1A82      		std Y+2,__zero_reg__
 608               	.LM90:
 609 0296 1B82      		std Y+3,__zero_reg__
 610               	.LM91:
 611 0298 9C83      		std Y+4,r25
 612               	.LM92:
 613 029a 9E81      		ldd r25,Y+6
 614 029c 9D83      		std Y+5,r25
 615               	.LM93:
 616 029e 8E83      		std Y+6,r24
 617               	.LM94:
 618 02a0 1F82      		std Y+7,__zero_reg__
 619               	.LBE35:
 620               	.LM95:
 621 02a2 90E0      		ldi r25,lo8(0)
 622               	.LM96:
 623 02a4 07E0      		ldi r16,lo8(7)
 624 02a6 10E0      		ldi r17,hi8(7)
 625               	.LM97:
 626 02a8 00C0      		rjmp .L50
 627               	.LVL52:
 628               	.L112:
 629               	.LM98:
 630 02aa 1A82      		std Y+2,__zero_reg__
 631               	.LM99:
 632 02ac 88E0      		ldi r24,lo8(8)
 633 02ae 8B83      		std Y+3,r24
 634               	.LM100:
 635 02b0 81E4      		ldi r24,lo8(65)
 636 02b2 8C83      		std Y+4,r24
 637               	.LM101:
 638 02b4 86E5      		ldi r24,lo8(86)
 639 02b6 8D83      		std Y+5,r24
 640               	.LM102:
 641 02b8 82E5      		ldi r24,lo8(82)
 642 02ba 8E83      		std Y+6,r24
 643               	.LM103:
 644 02bc 89E4      		ldi r24,lo8(73)
 645 02be 8F83      		std Y+7,r24
 646               	.LM104:
 647 02c0 83E5      		ldi r24,lo8(83)
 648 02c2 8887      		std Y+8,r24
 649               	.LM105:
 650 02c4 80E5      		ldi r24,lo8(80)
 651 02c6 8987      		std Y+9,r24
 652               	.LM106:
 653 02c8 8FE5      		ldi r24,lo8(95)
 654 02ca 8A87      		std Y+10,r24
 655               	.LM107:
 656 02cc 82E3      		ldi r24,lo8(50)
 657 02ce 8B87      		std Y+11,r24
 658               	.LM108:
 659 02d0 90E0      		ldi r25,lo8(0)
 660               	.LM109:
 661 02d2 0BE0      		ldi r16,lo8(11)
 662 02d4 10E0      		ldi r17,hi8(11)
 663               	.LM110:
 664 02d6 00C0      		rjmp .L50
 665               	.LVL53:
 666               	.L36:
 667               	.LBB38:
 668               	.LM111:
 669 02d8 EA81      		ldd r30,Y+2
 670 02da E058      		subi r30,lo8(-(-128))
 671 02dc E331      		cpi r30,lo8(19)
 672 02de 00F4      		brsh .L81
 673 02e0 F0E0      		ldi r31,lo8(0)
 674 02e2 E050      		subi r30,lo8(-(CSWTCH.6))
 675 02e4 F040      		sbci r31,hi8(-(CSWTCH.6))
 676 02e6 8081      		ld r24,Z
 677 02e8 00C0      		rjmp .L51
 678               	.L81:
 679 02ea 80E0      		ldi r24,lo8(0)
 680               	.L51:
 681               	.LVL54:
 682               	.LM112:
 683 02ec 1A82      		std Y+2,__zero_reg__
 684               	.LM113:
 685 02ee 8B83      		std Y+3,r24
 686               	.LBE38:
 687               	.LM114:
 688 02f0 90E0      		ldi r25,lo8(0)
 689               	.LM115:
 690 02f2 03E0      		ldi r16,lo8(3)
 691 02f4 10E0      		ldi r17,hi8(3)
 692               	.LM116:
 693 02f6 00C0      		rjmp .L50
 694               	.LVL55:
 695               	.L77:
 696               	.LM117:
 697 02f8 91E0      		ldi r25,lo8(1)
 698               	.L38:
 699               	.LVL56:
 700               	.LM118:
 701 02fa 1A82      		std Y+2,__zero_reg__
 702 02fc 00C0      		rjmp .L103
 703               	.LVL57:
 704               	.L44:
 705               	.LBB39:
 706               	.LM119:
 707 02fe 8D81      		ldd r24,Y+5
 708               	.LVL58:
 709               	.LM120:
 710 0300 8823      		tst r24
 711 0302 01F0      		breq .L82
 712               	.LM121:
 713 0304 8130      		cpi r24,lo8(1)
 714 0306 01F4      		brne .L83
 715               	.LM122:
 716 0308 85E9      		ldi r24,lo8(-107)
 717 030a 00C0      		rjmp .L106
 718               	.L82:
 719               	.LM123:
 720 030c 8EE1      		ldi r24,lo8(30)
 721 030e 00C0      		rjmp .L106
 722               	.L83:
 723               	.LM124:
 724 0310 8FE0      		ldi r24,lo8(15)
 725               	.LVL59:
 726 0312 00C0      		rjmp .L106
 727               	.LVL60:
 728               	.L113:
 729               	.LBE39:
 730               	.LM125:
 731 0314 1A82      		std Y+2,__zero_reg__
 732               	.LBB40:
 733               	.LM126:
 734 0316 E1E0      		ldi r30,lo8(1)
 735 0318 F0E0      		ldi r31,hi8(1)
 736 031a 89E0      		ldi r24,lo8(9)
 737               	/* #APP */
 738               	 ;  628 "stk500boot.c" 1
 739 031c 8093 5700 		sts 87, r24
 740 0320 E491      		lpm r30, Z
 741               		
 742               	 ;  0 "" 2
 743               	.LVL61:
 744               	/* #NOAPP */
 745               	.LBE40:
 746 0322 EB83      		std Y+3,r30
 747               	.LVL62:
 748               	.L104:
 749               	.LM127:
 750 0324 1C82      		std Y+4,__zero_reg__
 751               	.LM128:
 752 0326 90E0      		ldi r25,lo8(0)
 753               	.LM129:
 754 0328 04E0      		ldi r16,lo8(4)
 755 032a 10E0      		ldi r17,hi8(4)
 756               	.LM130:
 757 032c 00C0      		rjmp .L50
 758               	.LVL63:
 759               	.L42:
 760               	.LBB41:
 761               	.LM131:
 762 032e 8B81      		ldd r24,Y+3
 763 0330 8035      		cpi r24,lo8(80)
 764 0332 01F4      		brne .L53
 765               	.LM132:
 766 0334 8C81      		ldd r24,Y+4
 767 0336 8830      		cpi r24,lo8(8)
 768 0338 01F4      		brne .L54
 769               	.LBB44:
 770               	.LM133:
 771 033a 89E0      		ldi r24,lo8(9)
 772 033c E2E0      		ldi r30,lo8(2)
 773 033e F0E0      		ldi r31,hi8(2)
 774 0340 00C0      		rjmp .L102
 775               	.L54:
 776               	.LBE44:
 777               	.LBB43:
 778               	.LM134:
 779 0342 89E0      		ldi r24,lo8(9)
 780 0344 E0E0      		ldi r30,lo8(0)
 781 0346 F0E0      		ldi r31,hi8(0)
 782 0348 00C0      		rjmp .L102
 783               	.L53:
 784               	.LBE43:
 785               	.LBB42:
 786               	.LM135:
 787 034a E3E0      		ldi r30,lo8(3)
 788 034c F0E0      		ldi r31,hi8(3)
 789 034e 89E0      		ldi r24,lo8(9)
 790               	.L102:
 791               	/* #APP */
 792               	 ;  645 "stk500boot.c" 1
 793 0350 8093 5700 		sts 87, r24
 794 0354 8491      		lpm r24, Z
 795               		
 796               	 ;  0 "" 2
 797               	/* #NOAPP */
 798               	.L106:
 799               	.LVL64:
 800               	.LBE42:
 801               	.LM136:
 802 0356 1A82      		std Y+2,__zero_reg__
 803               	.LM137:
 804 0358 8B83      		std Y+3,r24
 805 035a 00C0      		rjmp .L104
 806               	.LVL65:
 807               	.L39:
 808               	.LBE41:
 809               	.LM138:
 810 035c 1A82      		std Y+2,__zero_reg__
 811               	.LM139:
 812 035e 90E0      		ldi r25,lo8(0)
 813               	.LM140:
 814 0360 02E0      		ldi r16,lo8(2)
 815 0362 10E0      		ldi r17,hi8(2)
 816               	.LM141:
 817 0364 8824      		clr r8
 818 0366 9924      		clr r9
 819               	.LM142:
 820 0368 00C0      		rjmp .L50
 821               	.LVL66:
 822               	.L37:
 823               	.LM143:
 824 036a FC81      		ldd r31,Y+4
 825 036c C15E      		subi r28,lo8(-287)
 826 036e DE4F      		sbci r29,hi8(-287)
 827 0370 F883      		st Y,r31
 828 0372 CF51      		subi r28,lo8(287)
 829 0374 D140      		sbci r29,hi8(287)
 830 0376 C25E      		subi r28,lo8(-286)
 831 0378 DE4F      		sbci r29,hi8(-286)
 832 037a 1882      		st Y,__zero_reg__
 833 037c CE51      		subi r28,lo8(286)
 834 037e D140      		sbci r29,hi8(286)
 835 0380 ED80      		ldd r14,Y+5
 836 0382 FF24      		clr r15
 837 0384 C25E      		subi r28,lo8(-286)
 838 0386 DE4F      		sbci r29,hi8(-286)
 839 0388 2881      		ld r18,Y
 840 038a 3981      		ldd r19,Y+1
 841 038c CE51      		subi r28,lo8(286)
 842 038e D140      		sbci r29,hi8(286)
 843               	.LVL67:
 844 0390 E22A      		or r14,r18
 845 0392 F32A      		or r15,r19
 846 0394 EE0C      		lsl r14
 847 0396 FF1C      		rol r15
 848               	.LVL68:
 849               	.LM144:
 850 0398 1A82      		std Y+2,__zero_reg__
 851 039a 00C0      		rjmp .L107
 852               	.LVL69:
 853               	.L40:
 854               	.LBB46:
 855               	.LM145:
 856 039c 3A81      		ldd r19,Y+2
 857 039e CF5D      		subi r28,lo8(-289)
 858 03a0 DE4F      		sbci r29,hi8(-289)
 859 03a2 3883      		st Y,r19
 860 03a4 C152      		subi r28,lo8(289)
 861 03a6 D140      		sbci r29,hi8(289)
 862 03a8 C05E      		subi r28,lo8(-288)
 863 03aa DE4F      		sbci r29,hi8(-288)
 864 03ac 1882      		st Y,__zero_reg__
 865 03ae C052      		subi r28,lo8(288)
 866 03b0 D140      		sbci r29,hi8(288)
 867 03b2 8B81      		ldd r24,Y+3
 868 03b4 90E0      		ldi r25,lo8(0)
 869 03b6 C05E      		subi r28,lo8(-288)
 870 03b8 DE4F      		sbci r29,hi8(-288)
 871 03ba E881      		ld r30,Y
 872 03bc F981      		ldd r31,Y+1
 873 03be C052      		subi r28,lo8(288)
 874 03c0 D140      		sbci r29,hi8(288)
 875 03c2 8E2B      		or r24,r30
 876 03c4 9F2B      		or r25,r31
 877               	.LVL70:
 878               	.LM146:
 879 03c6 4331      		cpi r20,lo8(19)
 880 03c8 01F0      		breq .+2
 881 03ca 00C0      		rjmp .L56
 882               	.LM147:
 883 03cc F0E0      		ldi r31,lo8(30720)
 884 03ce 8F16      		cp r8,r31
 885 03d0 F8E7      		ldi r31,hi8(30720)
 886 03d2 9F06      		cpc r9,r31
 887 03d4 00F4      		brsh .L57
 888               	.LM148:
 889 03d6 13E0      		ldi r17,lo8(3)
 890 03d8 F401      		movw r30,r8
 891               	/* #APP */
 892               	 ;  680 "stk500boot.c" 1
 893 03da 1093 5700 		sts 87, r17
 894 03de E895      		spm
 895               		
 896               	 ;  0 "" 2
 897               	/* #NOAPP */
 898               	.L58:
 899               	.LM149:
 900 03e0 07B6      		in __tmp_reg__,87-32
 901 03e2 00FC      		sbrc __tmp_reg__,0
 902 03e4 00C0      		rjmp .L58
 903               	.LM150:
 904 03e6 20E8      		ldi r18,lo8(128)
 905 03e8 30E0      		ldi r19,hi8(128)
 906               	.LVL71:
 907 03ea 820E      		add r8,r18
 908 03ec 931E      		adc r9,r19
 909               	.LVL72:
 910               	.L57:
 911               	.LBE46:
 912               	.LBB47:
 913               	.LBB45:
 914               	.LM151:
 915 03ee A701      		movw r20,r14
 916               	.LM152:
 917 03f0 D101      		movw r26,r2
 918               	.L59:
 919               	.LVL73:
 920               	.LBE45:
 921               	.LBE47:
 922               	.LBB48:
 923               	.LM153:
 924 03f2 2C91      		ld r18,X
 925               	.LVL74:
 926               	.LM154:
 927 03f4 1196      		adiw r26,1
 928 03f6 3C91      		ld r19,X
 929 03f8 1197      		sbiw r26,1
 930               	.LVL75:
 931               	.LM155:
 932 03fa 1296      		adiw r26,2
 933               	.LVL76:
 934               	.LM156:
 935 03fc 732F      		mov r23,r19
 936 03fe 60E0      		ldi r22,lo8(0)
 937 0400 30E0      		ldi r19,lo8(0)
 938 0402 262B      		or r18,r22
 939 0404 372B      		or r19,r23
 940               	.LM157:
 941 0406 11E0      		ldi r17,lo8(1)
 942 0408 FA01      		movw r30,r20
 943               	/* #APP */
 944               	 ;  691 "stk500boot.c" 1
 945 040a 0901      		movw  r0, r18
 946 040c 1093 5700 		sts 87, r17
 947 0410 E895      		spm
 948 0412 1124      		clr  r1
 949               		
 950               	 ;  0 "" 2
 951               	.LM158:
 952               	/* #NOAPP */
 953 0414 4E5F      		subi r20,lo8(-(2))
 954 0416 5F4F      		sbci r21,hi8(-(2))
 955               	.LVL77:
 956               	.LM159:
 957 0418 0297      		sbiw r24,2
 958               	.LVL78:
 959               	.LM160:
 960 041a 01F4      		brne .L59
 961 041c CC5D      		subi r28,lo8(-292)
 962 041e DE4F      		sbci r29,hi8(-292)
 963 0420 7983      		std Y+1,r23
 964 0422 6883      		st Y,r22
 965 0424 C452      		subi r28,lo8(292)
 966 0426 D140      		sbci r29,hi8(292)
 967               	.LM161:
 968 0428 15E0      		ldi r17,lo8(5)
 969 042a F701      		movw r30,r14
 970               	/* #APP */
 971               	 ;  697 "stk500boot.c" 1
 972 042c 1093 5700 		sts 87, r17
 973 0430 E895      		spm
 974               		
 975               	 ;  0 "" 2
 976               	/* #NOAPP */
 977               	.L60:
 978               	.LM162:
 979 0432 07B6      		in __tmp_reg__,87-32
 980 0434 00FC      		sbrc __tmp_reg__,0
 981 0436 00C0      		rjmp .L60
 982               	.LM163:
 983 0438 21E1      		ldi r18,lo8(17)
 984               	/* #APP */
 985               	 ;  699 "stk500boot.c" 1
 986 043a 2093 5700 		sts 87, r18
 987 043e E895      		spm
 988               		
 989               	 ;  0 "" 2
 990               	/* #NOAPP */
 991 0440 00C0      		rjmp .L61
 992               	.LVL79:
 993               	.L56:
 994               	.LM164:
 995 0442 AC01      		movw r20,r24
 996 0444 9701      		movw r18,r14
 997               	.LVL80:
 998               	.LM165:
 999 0446 F101      		movw r30,r2
 1000               	.LVL81:
 1001               	.L63:
 1002               	.LM166:
 1003 0448 21BD      		out 65-32,r18
 1004               	.LM167:
 1005 044a 32BD      		out 66-32,r19
 1006               	.LM168:
 1007 044c 2F5F      		subi r18,lo8(-(1))
 1008 044e 3F4F      		sbci r19,hi8(-(1))
 1009               	.LVL82:
 1010               	.LM169:
 1011 0450 6191      		ld r22,Z+
 1012               	.LVL83:
 1013 0452 60BD      		out 64-32,r22
 1014               	.LVL84:
 1015               	.LM170:
 1016 0454 FA9A      		sbi 63-32,2
 1017               	.LM171:
 1018 0456 F99A      		sbi 63-32,1
 1019               	.L62:
 1020               	.LM172:
 1021 0458 F999      		sbic 63-32,1
 1022 045a 00C0      		rjmp .L62
 1023               	.LM173:
 1024 045c 4150      		subi r20,lo8(-(-1))
 1025 045e 5040      		sbci r21,hi8(-(-1))
 1026               	.LVL85:
 1027               	.LM174:
 1028 0460 01F4      		brne .L63
 1029 0462 A701      		movw r20,r14
 1030               	.LVL86:
 1031 0464 480F      		add r20,r24
 1032 0466 591F      		adc r21,r25
 1033               	.LVL87:
 1034               	.L61:
 1035               	.LM175:
 1036 0468 1A82      		std Y+2,__zero_reg__
 1037               	.LBE48:
 1038               	.LM176:
 1039 046a 7A01      		movw r14,r20
 1040 046c 00C0      		rjmp .L107
 1041               	.LVL88:
 1042               	.L41:
 1043               	.LBB49:
 1044               	.LM177:
 1045 046e 3A81      		ldd r19,Y+2
 1046 0470 CD5D      		subi r28,lo8(-291)
 1047 0472 DE4F      		sbci r29,hi8(-291)
 1048 0474 3883      		st Y,r19
 1049 0476 C352      		subi r28,lo8(291)
 1050 0478 D140      		sbci r29,hi8(291)
 1051 047a CE5D      		subi r28,lo8(-290)
 1052 047c DE4F      		sbci r29,hi8(-290)
 1053 047e 1882      		st Y,__zero_reg__
 1054 0480 C252      		subi r28,lo8(290)
 1055 0482 D140      		sbci r29,hi8(290)
 1056 0484 2B81      		ldd r18,Y+3
 1057               	.LVL89:
 1058 0486 30E0      		ldi r19,lo8(0)
 1059 0488 CE5D      		subi r28,lo8(-290)
 1060 048a DE4F      		sbci r29,hi8(-290)
 1061 048c 8881      		ld r24,Y
 1062 048e 9981      		ldd r25,Y+1
 1063 0490 C252      		subi r28,lo8(290)
 1064 0492 D140      		sbci r29,hi8(290)
 1065 0494 282B      		or r18,r24
 1066 0496 392B      		or r19,r25
 1067               	.LVL90:
 1068               	.LM178:
 1069 0498 8901      		movw r16,r18
 1070 049a 0D5F      		subi r16,lo8(-(3))
 1071 049c 1F4F      		sbci r17,hi8(-(3))
 1072               	.LVL91:
 1073               	.LM179:
 1074 049e 1A82      		std Y+2,__zero_reg__
 1075               	.LVL92:
 1076               	.LM180:
 1077 04a0 4431      		cpi r20,lo8(20)
 1078 04a2 01F4      		brne .L64
 1079               	.LM181:
 1080 04a4 DE01      		movw r26,r28
 1081 04a6 1396      		adiw r26,3
 1082 04a8 A701      		movw r20,r14
 1083               	.L65:
 1084               	.LVL93:
 1085               	.LBB50:
 1086               	.LBB51:
 1087               	.LM182:
 1088 04aa FA01      		movw r30,r20
 1089               	/* #APP */
 1090               	 ;  736 "stk500boot.c" 1
 1091 04ac 8591      		lpm r24, Z+
 1092 04ae 9491      		lpm r25, Z
 1093               		
 1094               	 ;  0 "" 2
 1095               	.LVL94:
 1096               	/* #NOAPP */
 1097               	.LBE51:
 1098               	.LM183:
 1099 04b0 8C93      		st X,r24
 1100               	.LVL95:
 1101               	.LM184:
 1102 04b2 1196      		adiw r26,1
 1103 04b4 9C93      		st X,r25
 1104 04b6 1197      		sbiw r26,1
 1105               	.LM185:
 1106 04b8 1296      		adiw r26,2
 1107               	.LVL96:
 1108               	.LM186:
 1109 04ba 4E5F      		subi r20,lo8(-(2))
 1110 04bc 5F4F      		sbci r21,hi8(-(2))
 1111               	.LVL97:
 1112               	.LM187:
 1113 04be 2250      		subi r18,lo8(-(-2))
 1114 04c0 3040      		sbci r19,hi8(-(-2))
 1115               	.LVL98:
 1116               	.LM188:
 1117 04c2 01F4      		brne .L65
 1118 04c4 7A01      		movw r14,r20
 1119 04c6 00C0      		rjmp .L66
 1120               	.LVL99:
 1121               	.L64:
 1122               	.LM189:
 1123 04c8 CE01      		movw r24,r28
 1124 04ca 0396      		adiw r24,3
 1125 04cc E82F      		mov r30,r24
 1126 04ce 692F      		mov r22,r25
 1127               	.LBE50:
 1128               	.LM190:
 1129 04d0 C901      		movw r24,r18
 1130 04d2 A701      		movw r20,r14
 1131               	.LVL100:
 1132               	.L67:
 1133               	.LM191:
 1134 04d4 41BD      		out 65-32,r20
 1135               	.LM192:
 1136 04d6 52BD      		out 66-32,r21
 1137               	.LM193:
 1138 04d8 4F5F      		subi r20,lo8(-(1))
 1139 04da 5F4F      		sbci r21,hi8(-(1))
 1140               	.LVL101:
 1141               	.LM194:
 1142 04dc F89A      		sbi 63-32,0
 1143               	.LM195:
 1144 04de 70B5      		in r23,64-32
 1145 04e0 AE2F      		mov r26,r30
 1146 04e2 B62F      		mov r27,r22
 1147 04e4 7D93      		st X+,r23
 1148 04e6 BD01      		movw r22,r26
 1149 04e8 EA2F      		mov r30,r26
 1150 04ea 672F      		mov r22,r23
 1151               	.LVL102:
 1152               	.LM196:
 1153 04ec 0197      		sbiw r24,1
 1154               	.LVL103:
 1155               	.LM197:
 1156 04ee 01F4      		brne .L67
 1157               	.LM198:
 1158 04f0 E20E      		add r14,r18
 1159 04f2 F31E      		adc r15,r19
 1160               	.LVL104:
 1161               	.L66:
 1162               	.LM199:
 1163 04f4 1C92      		st X,__zero_reg__
 1164               	.LVL105:
 1165               	.LBE49:
 1166               	.LM200:
 1167 04f6 90E0      		ldi r25,lo8(0)
 1168 04f8 00C0      		rjmp .L50
 1169               	.LVL106:
 1170               	.L33:
 1171               	.LM201:
 1172 04fa 90EC      		ldi r25,lo8(-64)
 1173 04fc 9A83      		std Y+2,r25
 1174               	.LVL107:
 1175               	.L107:
 1176               	.LM202:
 1177 04fe 90E0      		ldi r25,lo8(0)
 1178               	.L103:
 1179               	.LM203:
 1180 0500 02E0      		ldi r16,lo8(2)
 1181 0502 10E0      		ldi r17,hi8(2)
 1182               	.LVL108:
 1183               	.L50:
 1184               	.LM204:
 1185 0504 8BE1      		ldi r24,lo8(27)
 1186 0506 C75D      		subi r28,lo8(-297)
 1187 0508 DE4F      		sbci r29,hi8(-297)
 1188 050a 9883      		st Y,r25
 1189 050c C952      		subi r28,lo8(297)
 1190 050e D140      		sbci r29,hi8(297)
 1191 0510 0E94 0000 		call sendchar
 1192               	.LVL109:
 1193               	.LM205:
 1194 0514 8B2D      		mov r24,r11
 1195 0516 0E94 0000 		call sendchar
 1196               	.LVL110:
 1197               	.LM206:
 1198 051a 812F      		mov r24,r17
 1199 051c 0E94 0000 		call sendchar
 1200               	.LVL111:
 1201               	.LM207:
 1202 0520 802F      		mov r24,r16
 1203 0522 0E94 0000 		call sendchar
 1204               	.LVL112:
 1205               	.LM208:
 1206 0526 8EE0      		ldi r24,lo8(14)
 1207 0528 0E94 0000 		call sendchar
 1208               	.LM209:
 1209 052c 95E1      		ldi r25,lo8(21)
 1210 052e A92E      		mov r10,r25
 1211 0530 AB24      		eor r10,r11
 1212               	.LM210:
 1213 0532 A026      		eor r10,r16
 1214               	.LM211:
 1215 0534 A126      		eor r10,r17
 1216               	.LVL113:
 1217               	.LM212:
 1218 0536 6201      		movw r12,r4
 1219 0538 00C0      		rjmp .L105
 1220               	.LVL114:
 1221               	.L69:
 1222               	.LM213:
 1223 053a F601      		movw r30,r12
 1224 053c 2191      		ld r18,Z+
 1225 053e 6F01      		movw r12,r30
 1226               	.LVL115:
 1227               	.LM214:
 1228 0540 822F      		mov r24,r18
 1229 0542 C85D      		subi r28,lo8(-296)
 1230 0544 DE4F      		sbci r29,hi8(-296)
 1231 0546 2883      		st Y,r18
 1232 0548 C852      		subi r28,lo8(296)
 1233 054a D140      		sbci r29,hi8(296)
 1234 054c C75D      		subi r28,lo8(-297)
 1235 054e DE4F      		sbci r29,hi8(-297)
 1236 0550 9883      		st Y,r25
 1237 0552 C952      		subi r28,lo8(297)
 1238 0554 D140      		sbci r29,hi8(297)
 1239 0556 0E94 0000 		call sendchar
 1240               	.LVL116:
 1241               	.LM215:
 1242 055a C85D      		subi r28,lo8(-296)
 1243 055c DE4F      		sbci r29,hi8(-296)
 1244 055e 2881      		ld r18,Y
 1245 0560 C852      		subi r28,lo8(296)
 1246 0562 D140      		sbci r29,hi8(296)
 1247 0564 A226      		eor r10,r18
 1248               	.LVL117:
 1249               	.LM216:
 1250 0566 0150      		subi r16,lo8(-(-1))
 1251 0568 1040      		sbci r17,hi8(-(-1))
 1252               	.LVL118:
 1253               	.L105:
 1254 056a C75D      		subi r28,lo8(-297)
 1255 056c DE4F      		sbci r29,hi8(-297)
 1256 056e 9881      		ld r25,Y
 1257 0570 C952      		subi r28,lo8(297)
 1258 0572 D140      		sbci r29,hi8(297)
 1259               	.LVL119:
 1260               	.LM217:
 1261 0574 0115      		cp r16,__zero_reg__
 1262 0576 1105      		cpc r17,__zero_reg__
 1263 0578 01F4      		brne .L69
 1264               	.LM218:
 1265 057a 8A2D      		mov r24,r10
 1266 057c C75D      		subi r28,lo8(-297)
 1267 057e DE4F      		sbci r29,hi8(-297)
 1268 0580 9883      		st Y,r25
 1269 0582 C952      		subi r28,lo8(297)
 1270 0584 D140      		sbci r29,hi8(297)
 1271 0586 0E94 0000 		call sendchar
 1272               	.LVL120:
 1273               	.LM219:
 1274 058a C75D      		subi r28,lo8(-297)
 1275 058c DE4F      		sbci r29,hi8(-297)
 1276 058e 9881      		ld r25,Y
 1277 0590 C952      		subi r28,lo8(297)
 1278 0592 D140      		sbci r29,hi8(297)
 1279 0594 9923      		tst r25
 1280 0596 01F4      		brne .L13
 1281               	.LM220:
 1282 0598 B394      		inc r11
 1283               	.LVL121:
 1284 059a 20E0      		ldi r18,lo8(0)
 1285 059c 30E0      		ldi r19,hi8(0)
 1286               	.LVL122:
 1287               	.L14:
 1288               	.LM221:
 1289 059e 60E0      		ldi r22,lo8(0)
 1290 05a0 70E0      		ldi r23,hi8(0)
 1291 05a2 80E0      		ldi r24,lo8(0)
 1292 05a4 00C0      		rjmp .L70
 1293               	.LVL123:
 1294               	.L13:
 1295               	.LM222:
 1296               	/* #APP */
 1297               	 ;  801 "stk500boot.c" 1
 1298 05a6 0000      		nop
 1299               	 ;  0 "" 2
 1300               	.LM223:
 1301               	/* #NOAPP */
 1302 05a8 8091 C000 		lds r24,192
 1303 05ac 8D7F      		andi r24,lo8(-3)
 1304 05ae 8093 C000 		sts 192,r24
 1305               	.LM224:
 1306 05b2 81E1      		ldi r24,lo8(17)
 1307               	/* #APP */
 1308               	 ;  808 "stk500boot.c" 1
 1309 05b4 8093 5700 		sts 87, r24
 1310 05b8 E895      		spm
 1311               		
 1312               	 ;  0 "" 2
 1313               	.LM225:
 1314               	 ;  811 "stk500boot.c" 1
 1315 05ba EE27      		clr	r30		
 1316 05bc FF27      		clr	r31		
 1317 05be 0994      		ijmp	
 1318               		
 1319               	 ;  0 "" 2
 1320               	/* #NOAPP */
 1321               	.L71:
 1322 05c0 00C0      		rjmp .L71
 1323               	.LVL124:
 1324               	.L110:
 1325               	.LM226:
 1326 05c2 8BE1      		ldi r24,lo8(27)
 1327 05c4 A82E      		mov r10,r24
 1328               	.LM227:
 1329 05c6 81E0      		ldi r24,lo8(1)
 1330 05c8 00C0      		rjmp .L32
 1331               	.L75:
 1332               	.LM228:
 1333 05ca 80E0      		ldi r24,lo8(0)
 1334 05cc 00C0      		rjmp .L32
 1335               	.LVL125:
 1336               	.L111:
 1337               	.LM229:
 1338 05ce 86E0      		ldi r24,lo8(6)
 1339               	.LVL126:
 1340 05d0 00C0      		rjmp .L32
 1341               	.LFE10:
 1343               		.data
 1346               	CSWTCH.6:
 1347 0000 00        		.byte	0
 1348 0001 00        		.byte	0
 1349 0002 00        		.byte	0
 1350 0003 00        		.byte	0
 1351 0004 00        		.byte	0
 1352 0005 00        		.byte	0
 1353 0006 00        		.byte	0
 1354 0007 00        		.byte	0
 1355 0008 00        		.byte	0
 1356 0009 00        		.byte	0
 1357 000a 00        		.byte	0
 1358 000b 00        		.byte	0
 1359 000c 00        		.byte	0
 1360 000d 00        		.byte	0
 1361 000e 00        		.byte	0
 1362 000f 00        		.byte	0
 1363 0010 02        		.byte	2
 1364 0011 02        		.byte	2
 1365 0012 0A        		.byte	10
 1406               	.Letext0:
DEFINED SYMBOLS
                            *ABS*:0000000000000000 stk500boot.c
     /tmp/cceHNO4p.s:2      *ABS*:000000000000003f __SREG__
     /tmp/cceHNO4p.s:3      *ABS*:000000000000003e __SP_H__
     /tmp/cceHNO4p.s:4      *ABS*:000000000000003d __SP_L__
     /tmp/cceHNO4p.s:5      *ABS*:0000000000000034 __CCP__
     /tmp/cceHNO4p.s:6      *ABS*:0000000000000000 __tmp_reg__
     /tmp/cceHNO4p.s:7      *ABS*:0000000000000001 __zero_reg__
     /tmp/cceHNO4p.s:17     .text:0000000000000000 sendchar
     /tmp/cceHNO4p.s:45     .init9:0000000000000000 __jumpMain
     /tmp/cceHNO4p.s:55     *ABS*:00000000000008ff __stack
     /tmp/cceHNO4p.s:93     .text:0000000000000018 main
     /tmp/cceHNO4p.s:1346   .data:0000000000000000 CSWTCH.6

UNDEFINED SYMBOLS
__do_copy_data
